(lp1
S'@JGreenDC @realDonaldTrump In all fairness #BillClinton owns that phrase.#GOPDebate'
p2
aS'@CarolCNN: #DonaldTrump under fire for comments about women @PeterBeinart @SL_Schaeffer @IWF @@MyRkiger weigh in on #GOPdebate http://t.\x89\xdb_'
p3
aS'@johncardillo: Guess who had most speaking time at the #GOPDebate. @FoxNews moderators with 31.7% of time. http://t.co/2WSUT0c0Lx'
p4
aS"@mchamric: RT \x89\xdb\xcf@TeaTraitors: #GOPDebate was still Clown Show! I'm glad Head Clown Trump helping destroy GOP. http://t.co/nwGx8G8JWr\x89\xdb\x9d"
p5
aS"@mch7576: RT \x89\xdb\xcf@TeaTraitors: #GOPDebate was still Clown Show! I'm glad Head Clown Trump helping destroy GOP. http://t.co/pRy2QPCWfu\x89\xdb\x9d\x89\xdb\x9d"
p6
aS'@mgell: Trump is a cross between the shrug emoji and President Business from the Lego movie. #GOPDebate'
p7
aS'Trump thinks criticism of his misogynistic remarks is a "political correctness" problem. Nope, it\'s a pervasive #sexism problem. #GOPDebate'
p8
aS"@rushlimbaugh Americans getting beheaded overseas and @megynkelly is worried whether @realDonaldTrump calls Rosie O'Donnell fat? #GOPDebate"
p9
aS'@Bipartisanism: Those saying "don\'t worry, Trump will NEVER be elected" need to remember we elected George Bush. Twice. #GOPDebate http:\x89\xdb_'
p10
aS'Fox News Had Its Own #GOPDebate Agenda: Promote Carly "never mention fired from HP" Fiorina, &amp; run Trump out of race http://t.co/9k1eujdFo7'
p11
aS'The Country\'s going to hell and Megyn Kelly on #FoxNews is attacking Trump for a "war on women?" #GOPDebate'
p12
aS'@SnarkyDemo: #DonaldTrump said he\x89\xdb\xaas not \x89\xdb\xcfpolitically correct.\x89\xdb\x9d  Which, of course, is Trumpspeak for \x89\xdb\xcfLet\x89\xdb\xaas face it, I\x89\xdb\xaam huge asshole.\x89\xdb\x9d #\x89\xdb_'
p13
aS'@TheBaxterBean: Watch Donald Trump Receive Enormous Applause for Horribly Misogynistic #GOPDebate Answer http://t.co/R4e8TpOtd5 http://t\x89\xdb_'
p14
aS'@fl_dreamer: Haha a little saas from @voxdotcom this morning towards @realDonaldTrump. #FactChecked #GOPDebate http://t.co/dAeCtmLlaj'
p15
aS"@carIisIe: None of them have made Trump look out of place or foolish yet. Think about that. When you're done crying, think about it agai\x89\xdb_"
p16
aS'@JRehling: #GOPDebate Donald Trump says that he doesn\'t have time for political correctness. How does calling women "fat pigs" save him \x89\xdb_'
p17
aS'Trump just said @JebBush is a true gentleman &amp; then they started violently 69ing. #GOPDebate'
p18
aS'@SnarkyDemo: What did the #GOPDebate teach us about a future President Trump?  America probably won\x89\xdb\xaat be safe, except if we\x89\xdb\xaare attacked \x89\xdb_'
p19
aS'@palmaceiahome1: Trump should have told Megyn Kelly to go to HELL! #FoxNews #GOPDebate'
p20
aS'@realDonaldTrump: "@stinger_inc: @realDonaldTrump  @megynkelly\'s behaviour at the #GOPDebate was astonishingly biased."'
p21
aS'@kraig4u: #GOPDebate  The order was to "take out Trump", but I wonder if FOX News was the one who took the "order" seriously. @HeidiL_RN'
p22
aS'@AmyMek: We all owe @realDonaldTrump a huge thank you 4 exposing to the world_\xd9\xd4\xe4@megynkelly, Chris Wallace, &amp; @FrankLuntz are true Rhinos!\x89\xdb_'
p23
aS'@DanScavino: .@MegynKelly,\rYou failed the American people tonight. \rYou tried to make history, by destroying @realDonaldTrump. #KellyFai\x89\xdb_'
p24
aS'@megynkelly @BretBaier @foxnews WTF was up with Chris Wallace attacking #Trump2016 on bankruptcy then giving Rubio a softball? #GOPDebate'
p25
aS"@VH1: Honestly, Donald Trump you were ALL types of petty at last night's #GOPDebate _\xd9\xf7\xd5 --&gt; http://t.co/QxdoeMfuqO http://t.co/mcr6lrJh2h"
p26
aS'Trump gloating abt buying GOP+Dem pols &amp;them doing his bidding IS my 2000s Billionaire caricature MyaCash #GOPDebate https://t.co/5spmU3csIc'
p27
aS'@DrMartyFox: #Trump Wins Drudge \rDebate Poll \r\r\x89_\xc1\x95\xfc\x8f By A Landslide \r\r#TedCruz #2 \r\r#GOPDebate #PJNET_\xd9\xe0\xbc_\xd9\xe0\xfc  \r\x89\xf7\xd4\x95\xfc\x8f http://t.co/YUh6j7QqHA http://\x89\xdb_'
p28
aS'@NancyLeeGrahn: The cheers from #GOPDebate  audience afterTrump defiantly named @Rosie as the woman he called "Fat Pig" were the voices \x89\xdb_'
p29
aS"@JohnKasich: Hey @RealDonaldTrump, if you're still looking to chip in, check out http://t.co/dy8KnZ122T\r\r#GOPDebate"
p30
aS'@oftenimprudent: I wish we could teach teenage girls to love themselves as much as Donald Trump loves himself. #GOPdebate'
p31
aS'#GOPDebate @FoxNews @realDonaldTrump  in1996 you called @billclinton a two timing slut.  Do you stand by that statement!?'
p32
aS'@theblaze The REAL war on women!@realDonaldTrump @megynkelly @rushlimbaugh #GOPDebate @AnnCoulter'
p33
aS'@AllThingsFlynn: This Trump vs. Fox News conflict is quite the conundrum. It\x89\xdb\xaas like the personification of Greed vs. Hate. Who do I root\x89\xdb_'
p34
aS'@Roy___Rogers: @KnucklDraginSam @GOP @realDonaldTrump @yobynnad1127 AMEN! #Trump2016 #WakeUpAmerica #GOPDebate #tcot #stoprush http://t.\x89\xdb_'
p35
aS'@zzcrane: Me watching the Donald Trump bandwagon pass. \r#tlot #tcot #GOPDebate http://t.co/wvQlSxgmCL'
p36
aS"@larhunter: If Donald Trump wins the election, then we'll know we're on the Biff-stole-the-almanac timeline. #GOPDebate"
p37
aS'@WhitneyNeal: Trump has yet to give a single, evidence-based answer to a direct question about policy. That should frighten you. #GOPDeb\x89\xdb_'
p38
aS'@IcarusPundit: Donald Trump\x89\xdb\xaas closing statement is every dinner conversation had at The Villages, ever. #GOPDebate'
p39
aS"@mrskimcam: Trump just said the U.S. is stupid, so let's vote him President. WTF people. #GOPDebate"
p40
aS"Hey look it's my feelings about Donald Trump summed up in one gif #GOPDebate http://t.co/zjWUGwj9Hz"
p41
aS'@kesgardner: Trump is a lunatic. #GOPDebate'
p42
aS"@kesgardner: AssClown: I'm the only reason anyone is even talking about illegal immigration. Keep digging, Donald! #GOPDebate"
p43
aS"@kesgardner: Hi Fox panel, can you just ask Donald every single question? Hand him a shovel while you're at it so he can keep digging. #\x89\xdb_"
p44
aS'Why are all the Trump accessory women wearing the same shoes?!  #GOPDebate http://t.co/Xz4zc1Lt8N'
p45
aS'And Donald Trump is an absolute nut! So entertaining LOL #GOPDebate'
p46
aS'@DanScavino: .@MegynKelly trying 2show up @realDonaldTrump w @FoxNews. Trying 2take him down. Trying 2destroy him. Not happening. #Kelly\x89\xdb_'
p47
aS"I give him a e for his big ego. #GOPDebate A's are earned for excellence. Rhymes with rump."
p48
aS'Trump changed his mind on supporting PARTIAL BIRTH ABORTION because a friend changed their mind on aborting &amp; had a great kid. #GOPDebate'
p49
aS'@lesleyabravanel: Trump sycophants want to know what @megynkelly\'s "hidden agenda" was last night. Answer is simple: it\'s called a vagin\x89\xdb_'
p50
aS'Donald Trump is a really nasty piece of work. Hope he disappears quickly. #GOPDebate'
p51
aS'@pattonoswalt: If Trump is against "p.c. culture," I\'m suddenly 100% for it. Not even kidding. What a howling shit-cave of a human. #GOP\x89\xdb_'
p52
aS'@Davante_R: Women that would be offended by Trumps "Misogyny" most certainly don\'t vote Republican.\r\rFind a new fake issue Faux News.\r\r#\x89\xdb_'
p53
aS'If #DonaldTrump donates to U..He can call in a favor years later?? Sounds like #TheGodfather\rNOT #POTUS Thats legal?\r#GOPDebate #GOPClownCar'
p54
aS"@kesgardner: If politics can be even partially rational, Trump's campaign for the GOP nomination just ended. #GOPDebate"
p55
aS'@3ChicsPolitico: Donald Trump insulted @megynkelly and ALL women and not one man on stage confronted him. None of them are worthy to be \x89\xdb_'
p56
aS'@jjauthor: @learjetter, I was waiting for @megynkelly to ask @realDonaldTrump, "When did you stop beating your wife?" #GOPDebate http://\x89\xdb_'
p57
aS'Paul Krugman sums up what happended last night: "One of our two major parties has gone off the deep end" http://t.co/gkubEM7gE7 #GOPDebate'
p58
aS"@AnthonyMarlowe: #Trump #Video It cost 4 times more than the $700M it would've if it were being managed by @realDonaldTrump #GOPDebate h\x89\xdb_"
p59
aS'@proginosko: Prediction: in the final #GOPDebate Donald Trump will tear off his #MissionImpossible mask to reveal a smirking Jon Stewart.'
p60
aS'Meet the new darling of the left \x8b\xdb\xdc Megyn Gotcha Kelly. #GOPDebate @FoxNews #DonaldTrump #MegynKelly'
p61
aS'#GOPDebate: a lesson for coming months: quality and not quantity in words &amp; time for tangible and believable propsals\rhttp://t.co/YHvNoEinyi'
p62
aS"@TUSK81: Not one candidate spoke up against Trump's mass-deportation plan, &amp; not one condemned his racist comments. Latinos won't forget\x89\xdb_"
p63
aS'donald trump... #whatajoke #GOPDebate'
p64
aS"@NewsWriter2: So we have Americans getting beheaded overseas and @megynkelly is worried whether @realDonaldTrump calls Rosie O'Donnell f\x89\xdb_"
p65
aS'@vivigold197: @realDonaldTrump: misogynist, ignorant, xenophobic and greedy: another proof that money does not buy class. #GOPDebate #GO\x89\xdb_'
p66
aS'@deray: Trump literally said that he donates to politicians and then calls them later to get what he wants. He literally just said that.\x89\xdb_'
p67
aS'@3ChicsPolitico: Trump calling @megynkelly a bimbo is reprehensible. This is about choosing a candidate for president NOT the Jerry Spri\x89\xdb_'
p68
aS"@TeaTraitors: #GOPDebate was still Clown Show! I'm glad Head Clown Trump helping destroy GOP. http://t.co/88QwTnPuIR"
p69
aS'Hey .@realDonaldTrump You know who didn\'t whine about "unfair" questions? @CarlyFiorina Grow a set why don\'t ya\'. #GOPDebate'
p70
aS'@feministabulous: My feelings about Trump after #GOPDebate: http://t.co/bKuz2OiamE'
p71
aS'@MilesOrionFeld: "Are you not entertained?!?!?!" Then #Trump throws a severed head into the crowd. #GOPDebate'
p72
aS"Donald Trump: Reagan Was A Con Man Who Couldn't 'Deliver The Goods' | ThinkProgress\r#GOPDebate http://t.co/LHmRKxWvcI"
p73
aS'@Anergo_Teacher: Seriously, #Trump is dangerous for the whole world. #GOPDebate'
p74
aS"Credit where credit is due - I was shocked #SHOCKED by Trump's cogent health care debate response #GOPdebate  https://t.co/Mdfg53UfaZ"
p75
aS'@ElianaBenador @PoliticalShort @Samlove0313Love @_AndyBryant @ebenjones @mjgranger1 #GOPDebate Trump too selfish &amp; immature to have power.'
p76
aS'@Writeintrump: Hey Megan Kelly, ask Kelly Osbourne how attacking me this week worked out for her.  #GOPDebate'
p77
aS"That pose is SO awkward. Who in the hell did she work with?  She's stiff, not natural. Kinda like the #GOPDebate last night. @Pissed_Pat"
p78
aS"Re #GOPDebate: Sure, it's all fun and games until one of these wackos has his finger on the big red button. http://t.co/ndgrhvpB4I"
p79
aS'Trump should have told Megyn Kelly to go to HELL! #FoxNews #GOPDebate'
p80
aS'@Ben_Elder1155: Donald Trump to Rand Paul tonight. #GOPDebate http://t.co/jV4yfOv7xZ'
p81
aS'Although the occasional dick, @realDonaldTrump sure knows how to keep these political debates alive and exciting. #GOPDebate'
p82
aS'hadiyah: Somebody needs to get the water off the stage before Trump and Paul start tossing drinks at each other. #GOPDebate'
p83
aS"@kesgardner Agreed. Still, he's the one everyone is talking about. #mystified #GOPDebate"
p84
aS"@pattonoswalt: Donald Trump's views on immigration are based solely on the first 8 minutes of SCARFACE. #GOPDebate"
p85
aS"Maybe if we should paying attention to every little thing #DonaldTrump sez....he's not a novelty anymore! \r#GOPDebate #GOPClownCar"
p86
aS"Trump's lead shows just how low the Bar is for GOP Nomination &amp; speaks to Base approval of their elected leaders! #GOPDebate #UniteBlue #P2"
p87
aS"@TheFriddle: Trump: Mexico!!!\r\rRubio: Majority of illegals aren't Mexican.\r\rThat's what grandstanding vs understanding real issue looks \x89\xdb_"
p88
aS'@weeklystandard: .@realDonaldTrump is looking more like Bernie Sanders - on the issues http://t.co/bzKnuXxObk #GOPDebate http://t.co/dxx\x89\xdb_'
p89
aS'@hilcox18: Donald Trump is Drunk Uncle #GOPDebate http://t.co/fcn61e8e3w'
p90
aS"@realDonaldTrump ur complaining so much about being targeted but do u think that when ur president u won't be targeted? #GOPDebate"
p91
aS'which is NOT fair and balanced #GOPDebate'
p92
aS"@nerdist: Trump constantly looks like he's trying to push out a fart. #GOPDebate"
p93
aS'"This was more of an inquisition than it was a debate" says Sen Graham about Fox News moderators questioning @realDonaldTrump at #GOPDebate'
p94
aS"@StudyingLiberty: The man who wants to take on Iran, Russia, and China can't even handle a few tough debate questions by Megyn Kelly. #G\x89\xdb_"
p95
aS"@RadioFreeTom: Look, Trumpkins, your hero didn't even win the steak knives last night, know what I'm sayin' here? #GOPDebate"
p96
aS'@ShadowBard: American women take note: When @@realDonaldTrump justified his piggish attacks on women at the #GOPDebate, not 1 man on sta\x89\xdb_'
p97
aS'Here is another one! Poor Frank is taken a beating_\xd9\xf7\xa9 LOL!_\xd9\xf7\xe2_\xd9\xf7\xe2_\xd9\xf7\xe2 #GOPDebate @realDonaldTrump  https://t.co/FfkuAoetTM'
p98
aS'#HalffullHalfMT? @FoxNews moderators prep #GOPDebate 4whats coming? Abc nbc CNBC cnn  willB more Nasty, #youvebeentargeted @realDonaldTrump'
p99
aS'@ThePatriot143: Let me help @FoxNews they wanted proof from Trump RE: Illegal Mexican Criminals #GOPDebate http://t.co/6yqBHhngsE http:/\x89\xdb_'
p100
aS"@MSchmidtRTD: Va. GOP leaders praise debate performances. Trump's, not so much. http://t.co/Ul5pgAq4UH #Election2016 #GOPDebate"
p101
aS"@_HankRearden: Well, so much for Krauthammer's theory about the 'collapse of Trump' lol. #GOPDebate #Trump2016 http://t.co/xtMDUbZGnj"
p102
aS'@realDonaldTrump has issues with women 4 ex wives &amp; a daughter -Obama has 2 daughters 1 wife &amp; is Very Respectful #gopdebate #msnbc #cnn'
p103
aS"@stephenmengland: Just read @realDonaldTrump's early morning Twitter rants. . .there are reasons why it's not recommended to mix drugs a\x89\xdb_"
p104
aS"I'm quite certain that the @realDonaldTrump is working for @HillaryClinton. It is his mission to get her elected.\r\r#GOPDebate"
p105
aS"@lesleyabravanel: My girl Hillary Clinton whips and nae naes like nobody's business. That's why Trump had to pay her to come to his wedd\x89\xdb_"
p106
aS'Absolutely terrifying. #Trump #GOPDebate http://t.co/m2leGhw8fJ'
p107
aS'How dare @megynkelly ask @realDonaldTrump his history of being a male chauvinist! Do we expect our president to have integrity?! #GOPDebate'
p108
aS'@clairechansen: Hey Trump, refraining calling women "fat pigs" and "whores" isn\'t being politically correct, it\'s being a decent human. \x89\xdb_'
p109
aS"@monaeltahawy: And was cheered! Shame, #GOPDebate: Trump responds to Megyn Kelly's questions on misogyny \x89\xdb\xd2 with more misogyny http://t.c\x89\xdb_"
p110
aS'Early2000s: I did political theater w/"Billionaires for Bush (or Gore)" re corruption of $ in politics. #GOPDebate Trump: "I buy \'em all!"'
p111
aS'@BBCJonSopel: Listening to Donald #Trump2016 you get impression he could start a fight in an empty room #GOPDebate'
p112
aS'@TheFriddle: I miss the days when conservatives wanted a @GOP Presidential candidate who was, you know, a conservative... #Trump #GOPDeb\x89\xdb_'
p113
aS'@k_mcq: Megyn Kelly on Trump: \x89\xdb\xcfHe can\x89\xdb\xaat just keep just going after everyone attacks him!\x89\xdb\x9d Yes, he can, Ms. "I\x89\xdb\xaam Offended!" Feminist. #GO\x89\xdb_'
p114
aS"@PersianPolitik: @woodruffbets @thedailybeast And you just proved @realDonaldTrump point on bad journalists from the #GOPDebate can't ev\x89\xdb_"
p115
aS'@ChadHastyRadio: Really, the only people who seem upset with @BretBaier &amp; @megynkelly &amp; FOX are the people who backed Trump. #GOPDebate'
p116
aS"I don't agree with @megynkelly but she is by no means a bimbo, #DonaldTrump.\rAs a woman, I find Trump's comments disgusting.\r#GOPDebate"
p117
aS"I mean, why should it matter if the questions were unfair? You didn't bother answering them anyway @realDonaldTrump #GOPDebate"
p118
aS'After #GOPDebate, @realDonaldTrump still #1 with Twitter but loosing ground. http://t.co/tXiMY82SOQ http://t.co/cVclcb6UBM'
p119
aS'@TamaraCG: My new favorite gif is perfect. #GOPDebate http://t.co/uKdZ8O85Av'
p120
aS'@TheMattFowler: \x89\xdb\xcfMr. Trump, this next question is for you. Please explain this pathetic taking of the Stone Cold Stunner\x89\xdb\x9d #GOPDebate htt\x89\xdb_'
p121
aS'@AmyMek: The ONLY way @realDonaldTrump will ever be treated fairly by the media -&gt; \r\r#GOPDebate http://t.co/5wYduo9v2K'
p122
aS'@realDonaldTrump hires actors for his announcement. How many did he pay to click the @DRUDGE_REPORT survey ? #GOPDebate #Trump'
p123
aS"@theLadyGrantham: Don't be Donald Trump dear, it's very middle class. #GOPDebate"
p124
aS'#GOPdebate: Trump trumps Trump. @realDonaldTrump was biggest loser.    http://t.co/I4T3C2GMZO via @SFGate'
p125
aS'I know the audience erupted last night re: @realDonaldTrump and Rosie line of ques, but how could you want that guy for a Prez? #GOPDebate'
p126
aS"'Political Correctness' is a vile term, and people who invoke it as a slur are cowards. #GOPDebate http://t.co/n8pu1zOVBh"
p127
aS'@JRehling: #GOPDebate Donald Trump is what Bruce Wayne would have turned into if his parents lived.'
p128
aS'American women take note: When @@realDonaldTrump justified his piggish attacks on women at the #GOPDebate, not 1 man on stage called him out'
p129
aS'@KEEMSTARx: The black guy is smart as fuck! #GOPDebate Trump should make him his VP.'
p130
aS"@megynkelly U disappointed me in last night's #GOPDebate. U should've asked @realDonaldTrump Q's that are pertinent 2 duties of a President."
p131
aS'@WhineNot: Rush: "Not one of the 9 other candidates on the stage joined Megan Kelly in going after Donald Trump" #GOPDebate'
p132
aS'"[Trump] has no integrity, no character, and no principles, and he\'s proud of it." - @MattWalshBlog\r\rAgreed \r\r#GOPDebate #Trump'
p133
aS'#gopdebate the fix was in from the get-go.First off, Question about pledging support should have been addressed directly 2 @realDonaldTrump'
p134
aS'@KoryStamper: Lookups! "Misogynist" spiking @MerriamWebster (http://t.co/k7RBb12RLC). Trump, women, and the #GOPDebate: http://t.co/yXsj\x89\xdb_'
p135
aS"\x89\xdb\xcf@TeaTraitors: #GOPDebate was still Clown Show! I'm glad Head Clown Trump helping destroy GOP. http://t.co/pRy2QPCWfu\x89\xdb\x9d\x89\xdb\x9d"
p136
aS'You must admit, @realDonaldTrump throws #shade like #RHOA LOL! _\xd9\xf7\xe2_\xd9\xf7\xe2_\xd9\xf7\xe2 #GOPDebate  https://t.co/c9LUq1dwW3'
p137
aS"@pillary56: There's a difference between not being politically correct and being a massive jerk, Mr. Trump #GOPDebate"
p138
aS'@krauthammer Sorry the downfall of Trump in last nights debate is greatly exaggerated #GOPDebate'
p139
aS'@realDonaldTrump\'s arrogance at the #GOPDebate: "I\x89\xdb\xaave used the laws of the country to my advantage." #NotThatGuy http://t.co/Rjtjr9iOAC'
p140
aS"I'd like to thank the other 9 candidates at the #GOPDebate who took Trump to task for once again trying to #FatShame @Rosie. But, I can't..."
p141
aS'Donald Trump, Democratic Spy? http://t.co/8N9MvTKN4u @realDonaldTrump @SenSanders #trump #DonaldTrump #Hillary2016 #GOPDebate'
p142
aS'@Writeintrump: I not only made Hillary Clinton go to my wedding, but I also made her be my Best Man.  #GOPDebate'
p143
aS'@FreedomTexasMom: My LOVE for @megynkelly died tonight at the #GOPDebate #FoxNews #TrumpCruz2016 #MakeAmericaGreatAgain'
p144
aS"Does Trump not realize he's a complete joke or?? I feel as though he would have caught onto that by now #GOPDebate"
p145
aS"Va. GOP leaders praise debate performances. Trump's, not so much. http://t.co/Ul5pgAq4UH #Election2016 #GOPDebate"
p146
aS"@coleasschneider: FYI, the real terror is Donald Trump's hair. #GOPDebate"
p147
aS"\x89\xdb\xcf@TeaTraitors: #GOPDebate was still Clown Show! I'm glad Head Clown Trump helping destroy GOP. http://t.co/nwGx8G8JWr\x89\xdb\x9d"
p148
aS"When @realDonaldTrump hears what iSaid about him during TV interview on #gopdebate he'll call me a dog...Ruff ruff_\xd9\xf7\x8f http://t.co/pyJ4HUhgjE"
p149
aS".@realDonaldTrump Shares Post Calling Megyn Kelly a 'Bimbo' Following Republican Debate | MRCTV http://t.co/ZaII5AQsii \x89\xdb_ #GOPDebate"
p150
aS"Overall I'm disappointed by the #GOPDebate Trump was entertaining Carson killed it but spoke the least. Im not impressed with most answers."
p151
aS'Trump has 5 companies that went bankrupt, and he wants to fix the U.S. Debt? \r#GOPDebate'
p152
aS'@EthanEllis32: From 2001-2009 Donald Trump was a Democrat. We can only assume he was confused and thought Democrats still supported slav\x89\xdb_'
p153
aS'@FreedomJames7: Trump Is A RINO.\r#GOPDebate http://t.co/eW7bPOqD5B'
p154
aS'Trump Is A RINO.\r#GOPDebate http://t.co/eW7bPOqD5B'
p155
aS'@zzcrane: I beg you Donald trump supporters to reconsider. He is easily influenced politically &amp; monetarily.  \r#GOPDebate #tlot #tcot #W\x89\xdb_'
p156
aS"@jennpozner: #insomniactivist 3:52am. Fine, I give up. Turning on DVR, watching #GOPDebate. Trump's @Rosie crack: does he think he's sti\x89\xdb_"
p157
aS"@G_Humbertson: Trump claimed last night that he's given most of his opponents money. Actually, just one. #GOPDebate http://t.co/xztTCvMP\x89\xdb_"
p158
aS'@ThePatriot143: \x89\xcf\xd3\x95\xfc\x8f @FoxNews was totally fair to @realDonaldTrump especially in the 1st 2mins of the #GOPDebate http://t.co/6W3EpMpOeJ'
p159
aS"Thoughts on #GOPdebate: Trump had so much more time than everyone because he can't answer ?s succinctly. Or at all #NotTrump #anyonebut"
p160
aS'@kharyp: #DonaldTrump Finally Called Out For Insulting Women As \x89\xdb\xf7Fat Pigs, Dogs, Slobs, And Disgusting Animals\x89\xdb\xaa http://t.co/fE6kZ2mmmB #\x89\xdb_'
p161
aS"@TrumpIssues: An illegal alien can be deported 5 X, make it back into the country, kill an American woman, but Trump can't call someone \x89\xdb_"
p162
aS'My LOVE for @megynkelly died tonight at the #GOPDebate #FoxNews #TrumpCruz2016 #MakeAmericaGreatAgain'
p163
aS'#GOPDebate Am I the only one who noticed that Donald Trump admitted to bribing public officials?'
p164
aS"I don't know who runs @realDonaldTrump's Twitter feed, but Gawd...Grow up Donald! Put on your big boy pants and stop whining! #GOPDebate"
p165
aS'Trump WOULD NOT take a Pledge NOT to run 3rd Party- DISQUALIFIED- GET OUT #Tcot #ccot #RedNationRising #GOPDebate'
p166
aS"@ThePatriot143 @realDonaldTrump @FoxNews Trump didn't need a lot of rope to completely hang himself. He's an embarrassment. #GOPDebate"
p167
aS'"Dump The Duncald" #Dunce #Donald #GOPDebate #Decision2016'
p168
aS'@TrumpIssues: Congress &amp; morons like @NancyPelosi can pass a bill WITHOUT reading it, but Trump better not call someone a slob. #GOPDeba\x89\xdb_'
p169
aS'@TheRealEubanks: Next #GOPDebate #Trump needs to let me do something with that hair!!!!! #fashion'
p170
aS'@roelgk: Ignorant. Obnoxious. Repulsive. And Intolerable. Donald Trump is a pure JOKE! Americans cannot let this CLOWN become president!\x89\xdb_'
p171
aS'@FreedomTexasMom: . @megynkelly nice attempt at provoking @realDonaldTrump to attack you instead of focusing on the issues. #epicFAIL #G\x89\xdb_'
p172
aS'@DudeYouCrazy: Trump just missed a golden opp to say, "Know who else filed bankruptcy? 50 cent. And Fifty is a P.I.M.P. Sorry, Huckabee.\x89\xdb_'
p173
aS'@katyfromkansas: Get Your Free Tacos Tonight, Courtesy of Donald Trump http://t.co/imXpyfqRPQ via #startup @Eat24 #GOPDebate http://t.co\x89\xdb_'
p174
aS'@AC360 @donnabrazile American people are not going to put up with #PCPolice feelings #trumptruth is the pulse of #AmericanVoters #GOPDebate'
p175
aS'Working on a huge #GOPDebate social data story. Some interesting trends, such as Trump not having the most tweeted-about moment last night.'
p176
aS"@thehinestheory: Donald Trump wasn't kidding when he said he wasn't going to prepare for this debate... We can tell. #GOPDebate"
p177
aS'Congrats @megynkelly 4 calling out @realDonaldTrump 4 being the #pig that he is! #NeverWillBePOTUS #GOPDebate #Bernie2016'
p178
aS'@Bipartisanism: Donald Trump at the #GOPDebate be like: http://t.co/Ak10IHSCXC'
p179
aS'Your wife @MELANIATRUMP looks exactly like @Caitlyn_Jenner. Get her a better plastic surgeon. #GOPDebate  https://t.co/w0kxqFX7cu'
p180
aS"Watching the #GOPDebate from last night. Ouf, it's tough hearing Donald Trump speak. Gonna be a long road to the Republican nomination."
p181
aS"@realDonaldTrump posted #MeanTweets about my boy @FrankLuntz. I'm glad he had the good taste to avoid ugly comments about hair. #GOPDebate"
p182
aS"I'm pretty sure Trump's popularity indicates there are just as many Republicans trolling this primary as Democrats. #GOPDebate"
p183
aS'@laina622: The king of resting bitch face #GOPDebate http://t.co/PvOS66iH2R'
p184
aS"@realDonaldTrump the other repubs didn't have attack orders bc @foxnews had the attack order. #gopdebate @rushlimbaugh"
p185
aS'@ScottWGraves: F**K @realDonaldTrump and those who would actually abandon their conservative values in support of his ridiculous candida\x89\xdb_'
p186
aS'Trump would put the POS in POTUS #GOPDebate #scary #ReallyAmerica'
p187
aS'&gt;@realDonaldTrump has now spent more time attacking @megynkelly on Twitter than he spent on any #GOPdebate subject. http://t.co/L9WWPiEHdI'
p188
aS'@luchadora41: Trump: \x89\xdb\xf7I Would\x89\xdb\xaa Shut Down the Gov\x89\xdb\xaat to Defund Planned Parenthood and Obamacare http://t.co/XiwhA8kjf7 Woot! #GOPDebate'
p189
aS'It took the @POTUS 5 DAYS 2 lower the flag 2 honor soldiers killed in #Chattanooga, but Trump better not call a woman slob. #GOPDebate #PC'
p190
aS"@YvetteCooper_MP: Here's Donald Trump channelling his inner c*nt at the #GOPDebate http://t.co/7atHCmpMuR"
p191
aS'@Brenkoski: 37% of the time during the #GOPDebate was the commentators questions &amp; digs at @realDonaldTrump Terrible 1st debate hosted b\x89\xdb_'
p192
aS'@GovtsTheProblem: Did @FoxNews, which excluded the only woman in @GOP field from first debate, ask Trump if he was part of the "war on w\x89\xdb_'
p193
aS'Donald Trump insulted @megynkelly and ALL women and not one man on stage confronted him. None of them are worthy to be President. #GOPDebate'
p194
aS"I've known Donald Trump was crazy ever since I saw my first bottle of Trump Ice. #DonaldTrump #GOPdebate http://t.co/vYjQt1fjYX"
p195
aS"WATCH #MegynKelly Burns #DonaldTrump 'You Called #Women Fat Pigs &amp; Digusting Animals' #USA #GOPDEBATE\rhttps://t.co/VViA1NUyLd via @YouTube"
p196
aS'#Trump lowered the bar for #Jeb, who smacked his head into it  #GOPClownCar #GOPDebate'
p197
aS'Trump shows his true colors at the GOP debate - http://t.co/BWIpvDCMQy #GOPDebate #Trump #Garybusey'
p198
aS"@andrewklavan: This is basically my take-away from tonight's #GOPDebate. http://t.co/qtYyoWKLNG"
p199
aS'Did Donald Trump just openly admit to buying candidates ....? #GOPDebate'
p200
aS'F**K @realDonaldTrump and those who would actually abandon their conservative values in support of his ridiculous candidacy.\r#GOPDebate'
p201
aS"Trump should do like Obama and refuse to communicate with #PoxNews for saying anything he doesn't like.  #GOPDebate"
p202
aS'That #GOPDebate last night was ridiculously biased against @realDonaldTrump the moderators were very unprofessional.'
p203
aS"@megynkelly Trump simply can't be harmed by his own impolitik statements. It's like trying to drown Aquaman. #GOPDebate #DonaldTrump"
p204
aS'@megynkelly: .@FrankLuntz focus group gives low marks to @realDonaldTrump saying he\x89\xdb\xaad consider third party candidacy. #GOPDebate'
p205
aS"@Nickcalves: Tell me this isn't @realDonaldTrump?? #GOPDebate http://t.co/tj5UEuQ8jM"
p206
aS'\x89\xdb\xcf@bennydiego: The unplanned parenthood. #foxnews #gopdebate http://t.co/C1fFLfYReu\x89\xdb\x9d'
p207
aS"Trump claimed last night that he's given most of his opponents money. Actually, just one. #GOPDebate http://t.co/xztTCvMPlI"
p208
aS'Trump Supporters \x89\x9d_\x95\xfc\x8f To Attack Other Conservative Followers _\xd9\xf7_\r#GOPDebate'
p209
aS'@shhhhhionn: Trump calls everybody "clowns" and "puppets" because he believes, correctly, that he is at a children\'s birthday party. #GO\x89\xdb_'
p210
aS'The goal of #FoxNews last night was to take out Trump and pave the way for a RINO like Bush or Kasich. #GOPDebate'
p211
aS"@RviydoGUTV: Donald Trump is like Sanjaya from American Idol. You know he won't win but you're curious to see how far he will go #GOPDeb\x89\xdb_"
p212
aS"Only person @realDonaldTrump had a problem with is @megynkelly -Trump has issues with women He doesn't respect women #GOPDebate #msnbc #cnn"
p213
aS'@MrIanMacIntyre: On the FB post of last night\'s #GOPdebate, all the comments seem to be attacking Fox News for "attacking Trump". _\xd9\xf7\xdb_\xd9\xf7\xdb_\xd9\xf7\xdb ht\x89\xdb_'
p214
aS'@aurabogado: Half an hour into it, Donald Trump has made it clear he hates: women, immigrants, reporters, and leaders. #GOPDebate'
p215
aS'@TrumpIssues: This prick can call the death of #KateSteinle a "little thing," but Trump can\'t call someone a dog. #GOPDebate #PC https:/\x89\xdb_'
p216
aS'Preview of Donald Trump tonight at the #GOPDebate (Vine by @CaseyBake16) https://t.co/CRAEVHInKb'
p217
aS'@Krauthammer: "The real story is the collapse of (@realDonaldTrump) in this (#GOPDebate)." http://t.co/Csm0a7ddpz'
p218
aS'Like honestly why does any one on that stage validate trump by talking about him or to him #GOPDebate'
p219
aS"@BiasedGirl: This douchebag doesn't know how to talk to decent people. Bill Clinton get Your Boy on a Leash #DumpTrump #GOPDebate https:\x89\xdb_"
p220
aS'I love hearing all the #Trump Chumps whining about the #GOPDebate moderators. Maybe they should worry more about his lack of cogent ideas.'
p221
aS'@pattonoswalt: Immigration. Save Trump for the end. No one can follow GG Allin shitting onto the stage, guys. #GOPDebate'
p222
aS"@nickmartin: Donald Trump's most outrageous lines from the #GOPDebate tonight: http://t.co/tbdk1gtxND by @KT_thomps http://t.co/v3TltVJ0\x89\xdb_"
p223
aS"@realDonaldTrump didn't like @megynkelly pressing question.  Resorts to calling her a 'bimbo'.  #GOPDebate #noclass https://t.co/Z6nQmfUxHg"
p224
aS'From @GlennCook_NV: #GOPdebate marks beginning of the end for #Trump: https://t.co/VDBYGTLZGO, via @reviewjournal'
p225
aS'@lyndonjackmon Dearheart #BoyAboutTown is never upset about ppls views,no matter how misguided. After #GOPDebate #DonaldTrump is a non issue'
p226
aS'@RickCanton: Am I the only one who noticed @realDonaldTrump admitting to not being a Republican?\r\rIt was a #GOPDebate, not an #IDontKnow\x89\xdb_'
p227
aS"Leaders make tax-payers fund @Ppact even when it's against their beliefs, but Trump can't call a person a disgusting animal. #GOPDebate #PC"
p228
aS'Did Trump Implode in #FOXdebate? Special new @hlcpodcast #GOPdebate edition http://t.co/HEYhWpWUWx #mapoli #nhpolitics #mepolitics #trump'
p229
aS"@el_nuko: @Stonewall_77 @megynkelly @BretBaier @FrankLuntz @FoxNews @realDonaldTrump did #Jeb get 5, no 6 softball q's last night? #GOPD\x89\xdb_"
p230
aS'Donald Trump would be a bad President, but an excellent Pro Wrestler. Finishing move: The Trump Card! #GOPDebate'
p231
aS'The media seem to be leaving out the most disturbing comments Trump made to Megan Kelly where he made a veiled threat to her.\r#gopdebate'
p232
aS'Rush Limbaugh to Megyn Kelly "I know no Democrat Candidate would be treated the way Megyn Kelly treated Trump." #FoxNews #GOPDebate'
p233
aS'On the FB post of last night\'s #GOPdebate, all the comments seem to be attacking Fox News for "attacking Trump". _\xd9\xf7\xdb_\xd9\xf7\xdb_\xd9\xf7\xdb http://t.co/YuLgjreYvU'
p234
aS'@amandagutterman: Trump wants to treat Mexicans like the white walkers #GOPDebate'
p235
aS'@renomarky: #GOPDebate #FoxDebate #DonaldTrump #MegynKelly \rTo start debate with a loaded sexist question was unfair &amp; disgusting http:/\x89\xdb_'
p236
aS"@Raddmom: @megynkelly you mean before you crash and burned- you're despicable- never watch your show again- EVER! #GOPDebate @realDonald\x89\xdb_"
p237
aS"@_HankRearden: .@megynkelly so would you consider Trump part of the 'patriarchy?' Serious question. #GOPDebate"
p238
aS'@keder they missed an "h" in that. It\'s supposed to read "Whiner: Donald Trump" #GOPDebate'
p239
aS"@woodruffbets @thedailybeast And you just proved @realDonaldTrump point on bad journalists from the #GOPDebate can't even describe it right"
p240
aS"I would say that Trump appeared incompetent in the #GOPDebate, but that wouldn't be very nice."
p241
aS'@stephenmengland @realDonaldTrump Donald Trump is starting to Implode but I doubt that his supporters even notice. #GOPDebate'
p242
aS'@LilaGraceRose: .@megynkelly asks good question on track record of #pro-abortion position @realDonaldTrump. Answer: obfuscation from #Tr\x89\xdb_'
p243
aS'FOX made an all out effort to take #DonaldTrump out. I hope his poll numbers catapult!! #GOPDebate'
p244
aS'@realDonaldTrump should purchase @FoxNews and relieve @megynkelly of her duties! #GOPDebate #tcot #Trump2016  https://t.co/TTp2x2gRRC'
p245
aS'@speechboy71: Also losers and dummies RT @PeterBeinart: .@realDonaldTrump: only abort non-superstars #GOPDebate'
p246
aS'@megynkelly I WAS a big fan, watched your show nightly , until your LIB  attack on @realDonaldTrump #GOPDebate #NoKellyFiles #Trump2016'
p247
aS"This image best sums up my thoughts regarding last night's #GOPDebate http://t.co/ko0eOisFJw"
p248
aS'@PamelaGeller @AnnCoulter I think you on accidentally uploaded a pic of Hillary instead of @realDonaldTrump. #GOPdebate'
p249
aS"@BiasedGirl: He admitted to paying Hillary to attend his wedding. Jesus. Fangirl much? I'd have gone with The Rock. That's just me. #Dum\x89\xdb_"
p250
aS'@P0TUS: .@realDonaldTrump &lt;--- "Pay no attention to those pesky facts behind the curtain"\r\r#GOPDebate http://t.co/hxCUBSvTGL'
p251
aS"#gopdebate Trump hates fat people? He should look in the mirror. Poor Chris Christe won't challenge him. Well, you know why. : ("
p252
aS"Trump Wouldn't take a pledge NOT to run 3rd Party- He couldn't  to answer when he became Conservative CUZ HES NOT #TCOT #ccot #GOPDebate"
p253
aS'@Rob_guillory: My favorite part of the #GOPDebate was when Sting repelled from the ceiling and delivered a crushing Scorpion Death Drop \x89\xdb_'
p254
aS"@pattonoswalt: Goddamit, Donald. Your soul is on fumes and your heart orbits a dying sun. but you're making this thing interesting. Fuck\x89\xdb_"
p255
aS'The zone has warned folks about Fox News commentators like #MegynKelly for months...http://t.co/IZ6Z3APgBH in relation to #GOPDebate &amp; Trump'
p256
aS'Donald Trump just gave a master class on how to get away with #sexism http://t.co/lIwTJlzZfd via @voxdotcom #GOPDebate #GOPClownShow'
p257
aS'@freedomtex: The real story was the collapse of Trump in this debate. -@krauthammer  #GOPDebate'
p258
aS'Trump is overrated and angry. @megynkelly was surprisingly good. #FuckTrump #GOPDebate  https://t.co/ghFpF8MOvF'
p259
aS'@RadioFreeTom: Trump\'s answer on his businesses so far is the certifiable disaster of the night, right after his "I buy influence" comme\x89\xdb_'
p260
aS'@realDonaldTrump where are your manners? #GOPDebate'
p261
aS'"@RubinReport: Finally got it. Trump looks like Boss Nass from #StarWars. #GOPDebate http://t.co/e8GzqNhK9r" @rockstarfudge'
p262
aS'@thedailybeast: WATCH: Trump\'s disgusting "drop to your knees" comment (mentioned @ #GOPdebate  http://t.co/yyz21reoOD #trumpisapig #fb'
p263
aS'@washingtonpost @AaronBlakeWP What @megynkelly did to @realDonaldTrump was mean-spirited. Everyone should boycott her show! #GOPDebate'
p264
aS"@PayAttnLibs: This #GOPDebate would be over by now if @megynkelly could just pull out a gun and shoot Trump. Clear it's what she wants"
p265
aS"@steviecoolest: #GOPDebate\rCands/Mods: Trump, you can't run independent! We'll lose!\rMe: Your last pick said http://t.co/c2r0qZdexv was \x89\xdb_"
p266
aS'@SoccerMum11: Is it me or was #GOPDebate asking more personal attack type questions to @realDonaldTrump? Not cool.'
p267
aS"Did anybody see Trump's face when Rubio mentioned #ElChapo last night? The horror. #GOPDebate"
p268
aS'@BiasedGirl: "Donald Trump is not a Conservative" ~ @AndrewBreitbart   #GOPDebate #DumpTrump'
p269
aS"@Ryan_N_Wiggins: Trump short: Casinos fail. I'm proud I ran a casino into the ground. Trust me to make equally smart decisions for the c\x89\xdb_"
p270
aS'Rush Limbaugh seems to think #FoxNews did a hit job on Trump. #GOPDebate'
p271
aS'If @realDonaldTrump were the Titanic, the iceberg would sink. #GOPDebate'
p272
aS'@guypbenson No Guy. Trump shoots the messenger, as he did with Meagan Kelly last night. Must be a habitual response of his. #GOPDebate'
p273
aS'Why the national debt is increasing instead of decreasing? @realDonaldTrump and I will solve this problem! #GOPDebate #Inconsistent'
p274
aS"@JohnGGalt: This is a manufactured hit job on Donald Trump, Fox News has no class and it's transparent and pathetic, makes me sick. #GOP\x89\xdb_"
p275
aS'This Trump vs. Fox News conflict is quite the conundrum. It\x89\xdb\xaas like the personification of Greed vs. Hate. Who do I root for!?! #GOPDebate'
p276
aS"This is that rare instance when I have to agree with @IAMMGraham. @realDonaldTrump's performance in the #GOPDebate will hurt him. @ghook"
p277
aS"Yeah, how dare that birch stand up for women's issues?  So much respect for @megynkelly now. #GOPDebate  https://t.co/k7E0ttVsKO"
p278
aS'@DNchef: @jjauthor @yewkalaylee @learjetter @megynkelly @realDonaldTrump ...whether you support him or not. it was shameful. #GOPDebate'
p279
aS'@MikeDrucker: "If you elect me, I\'ll be the best comic book villain president you\'ve ever seen!" - Donald Trump #GOPDebate'
p280
aS"#GOPDebate\rCands/Mods: Trump, you can't run independent! We'll lose!\rMe: Your last pick said http://t.co/c2r0qZdexv was a real live person."
p281
aS'@MakinH15TORY: Lol @ Trump #GOPDebate'
p282
aS'#GOPDebate Donald Trump hates Mexicans? http://t.co/Ut1zaW9vK4'
p283
aS'@djmorris55: .@realDonaldTrump calls 3rd party talk "leverage." Sounds like extortion. Pick me or I\'ll make you lose. #gopdebate @Kiplin\x89\xdb_'
p284
aS"@DebbyRevere: @realDonaldTrump @smartvalueblog #trump said he wasn't preparing &amp; true enuff you could tell. #GOPDebate take run serious,\x89\xdb_"
p285
aS"@realDonaldTrump whaah _\xd9\xf7__\xd9\xf7_ @megynkelly &amp; #foxnews was unfair to me They shouldn't ask questions about what I say _\xd9\xf7__\xd9\xf7_ #gopdebate"
p286
aS'@jjauthor @yewkalaylee @learjetter @megynkelly @realDonaldTrump ...whether you support him or not. it was shameful. #GOPDebate'
p287
aS'Based on his rhetoric, I assume when Donald Trump looks at Megyn Kelly, he sees Miss Piggy.\r\r#GOPDebate'
p288
aS'Trump invites Hillary Clinton to his (3rd) wedding... but blasts Megyn Kelly during/after the debate.\r\rAnd he\'s a "Republican"??? #GOPDebate'
p289
aS'@Daenerys: Donald Trump got The Wall idea from Game of Thrones. #GOPDebate'
p290
aS'@StudyingLiberty: Apparently Trump, the "tell it like it is" guy, can\'t handle some tough questions that point out his utter hypocrisy. \x89\xdb_'
p291
aS"@Marmel Wondered same thing. And Trump did mention her firing in one of his recent diatribes. Surprised he didn't diss her @ #GOPDebate."
p292
aS'@FrankLuntz: My focus group actually likes Donald Trump as a person and a businessman\x89\xdb_ But not as a candidate.  #GOPDebate\r\rhttp://t.co/\x89\xdb_'
p293
aS'.@gatewaypundit @megynkelly @realDonaldTrump Megyn= the new Candy Crowley. They blundered badly. FOX exposed themselves. #GOPDebate'
p294
aS'@feministabulous: Trump can say "I hate the concept of abortion" because he\'ll NEVER NEED ONE. #GOPDebate'
p295
aS'@benshapiro: If you want to finish Trump, you DO NOT FEED THE TROLL. Fox News fed the troll a five-course banquet. #GOPDebate'
p296
aS"Just read @realDonaldTrump's early morning Twitter rants. . .there are reasons why it's not recommended to mix drugs and alcohol. #GOPDebate"
p297
aS'@megynkelly going.Ronda Rousey on @realDonaldTrump \'s  posterior and his childish comeback was a "where were you when?" moment.#GOPDebate'
p298
aS'@princeofbordue1: WRONG! #EPICFAIL @megynkelly attacked @realDonaldTrump from the start. There nothing fair and balanced. #GOPDebate  ht\x89\xdb_'
p299
aS"@Timcast: Trump's flaunting of wealth has literally nothing to do with having good ideas and being a good leader, its just gross. #GOPDe\x89\xdb_"
p300
aS'@Kerryepp: What if the media had treated Barack Obama liked Fox journalists treated Donald Trump? http://t.co/uHuNkEXEPX\r#GOPDebate #tco\x89\xdb_'
p301
aS"@johnnyfriegas: If I was a conspiracy guy I'd say FOX wants to hurt Trump by asking him questions and hurt Cruz by NOT asking him questi\x89\xdb_"
p302
aS'One thing you can say about the #GOPDebate last night, #DonaldTrump pretty much screwed himself of any chance of becoming President -'
p303
aS'@KevinOfTheHill: Waiting for Trump to declare that he is god\r#GOPDebate'
p304
aS'Ignorant. Obnoxious. Repulsive. And Intolerable. Donald Trump is a pure JOKE! Americans cannot let this CLOWN become president! #GOPDebate'
p305
aS"@HoldenMirror: The real voice of the #GOP in the #GOPDebate was @realDonaldTrump. @FoxNews don't be mad, he's only parroting what you ha\x89\xdb_"
p306
aS"@realDonaldTrump I view this Buffoon as a schoolyard bully who can't function in a normal society. #GOPDebate"
p307
aS'@MolonLabe1776us: How much did CNN/MSNBC/ Hillary pay @megynkelly to moderate tonights debate? #GOPDebate @realDonaldTrump http://t.co/J\x89\xdb_'
p308
aS'I loathe Faux Nooz, kudos to Ms. Kelly going after "Da Donald," the misogynistic, bloviating, xenophobic, carnival barker. #GOPdebate'
p309
aS'@deray: Trump is absolutely out of control. Someone, please send the clip of him sharing, "What am I saying?" to the moderator. #GOPDeba\x89\xdb_'
p310
aS"@realDonaldTrump hates strong, independent, women. I'm shocked he doesn't tell his daughter to put a dick in her mouth &amp; hush #GOPDebate"
p311
aS'@tpirkl: #GOPDebate was a hot mess &amp; #FoxNews gets some blame but this was a setup by #GOP to crush #Trump, ignore #Cruz &amp; prop up #Jeb.\x89\xdb_'
p312
aS'@EricTTung: "We\'ve not seen any #immigration proposal or plan from @realDonaldTrump"  @JMurguia_NCLR of @NCLR #GOPDebate'
p313
aS'@LadyLiberty1885: This @foxnews debate was about pushing trump down, lifting up Common core Jeb and silencing Cruz. #gopdebate'
p314
aS"@benshapiro: Don't want Trump to run third party? Don't give his supporters a reason to feel aggrieved. Opportunity blown. #GOPDebate"
p315
aS"I didn't think a single candidate distinguished themselves last night &amp; I think Trump did what I expected...more of the same. #GOPDebate"
p316
aS'@iamrapaport: The only debate anyone really cares about @iamrapaport #wedontfactcheck @michaelrapaport @GeraldMoody1560 #GOPDebate http:\x89\xdb_'
p317
aS'So Trump got Trumped by @megynkelly and what does he do... Whines like a "mamas boy" and calls her a bimbo. #GOPDebate #KeepItUpMegyn'
p318
aS'.@RealDonaldTrump retweets Twitter users calling @megynkelly a "bimbo" and "unbecoming" after #GOPdebate http://t.co/sQykqA97bs'
p319
aS'I wish there was more CGI in the #GOPDebate when the candidates called out Trump as not being helpful to Americans. http://t.co/ladgpa1REz'
p320
aS"@senatorshoshana: If @megynkelly is a bimbo, as @realDonaldTrump says, shouldn't he have had a super easy time answering her questions? \x89\xdb_"
p321
aS"@jefftiedrich: The Republican Party wakes up with a huge hangover, a splitting headache and no idea why it's in bed with Donald Trump. #\x89\xdb_"
p322
aS'all i learned from #GOPDebate is that @realDonaldTrump is a sexist pig w/ MO shock value for the ignorant-wow that debate was drunkenky dumb'
p323
aS"Pouty face Donald bullies around at the GOP debate. I'm rich &amp; loud &amp; do what I want, if I can get away with it! #GOPDebate"
p324
aS'@megynkelly is very biased or she was paid off to assassinate @realDonaldTrump during the #GOPDebate #KellyFailed'
p325
aS"@Doc_68W_ Fox tried hard to torpedo Trump, from the opening question to ques abt his remarks abt women. #GOPDebate See also Rove's WSJ piece"
p326
aS"The real voice of the #GOP in the #GOPDebate was @realDonaldTrump. @FoxNews don't be mad, he's only parroting what you have been sying 4yrs."
p327
aS'I AM DEAD -- #GOPDebate Trump at the Roxbury https://t.co/q1y4SYaB9B'
p328
aS'@mrdaveyd: So donald Trump says everyone is stupid and Ben Carson says everyone is an uninformed, useful idiot...we are all NOT worthy #\x89\xdb_'
p329
aS'@2AFight: Trump changed party 6 times! Loves ego, not America\r\r#GOPDebate #tcot #PJNET #ycot #RedNationRising #ccot #teaparty http://t.c\x89\xdb_'
p330
aS'@tjocaldwell: The big problem this country has is political correctness #trump #GOPDebate Disrespected #MeganKelly'
p331
aS'Watched the #GOPDebate last night, which is very unlike me. Feels like a complete joke with Trump on stage. Seriously?!'
p332
aS'And...#DonaldTrump remains at the top of the polls! Boo what is wrong with people! #Kasich2016 did well. #GOPDebate "fat pig", women..NO'
p333
aS"Trump did fine in the #GOPDebate. Not spectacular, but good enough. It's in the post-debate he's killing himself."
p334
aS'If the only outcome of the #GOPDebate is that The Trump is a domineering boor, replace one of the old guys in suits with a monkey next time.'
p335
aS'Breaking news: Is @realDonaldTrump buying #FoxNews? Sources say that would be hilarious\r#trump\r#GOPDebate'
p336
aS".@megynkelly had bad night, should've asked @realDonaldTrump important questions, how will he stop ISIS #GOPDebate  https://t.co/dac0QDku7i"
p337
aS'The Chair of the DNC doesn\'t know the FN difference between being a Democrat &amp; a Socialist, but Trump called someone a "fat pig." #GOPDebate'
p338
aS'@RyanMauro: Arab columnist praises @realDonaldTrump #DonaldTrump #GOPDebate: http://t.co/3wqjfZgH2q'
p339
aS"@Marmel: So we're going to talk about Trump's bankruptcies but not Fiorina's tenure at HP?\r\rAdorbs.\r\r#GOPDebate"
p340
aS"@America4Israel: @FoxNews #GOPDebate a lovefest for Republican party. Problem wasn't just @megynkelly but all producers involved in bury\x89\xdb_"
p341
aS"@Sleevetalkshow: @realDonaldTrump's incivility &amp; arrogance continues after @FoxNews #GOPDebate. http://t.co/nXoWLLfsIb http://t.co/oQawD\x89\xdb_"
p342
aS'"We\'ve not seen any #immigration proposal or plan from @realDonaldTrump"  @JMurguia_NCLR of @NCLR #GOPDebate'
p343
aS'@JamesRosenFNC, @BretBaier @megynkelly &amp; Chris Wallace acted like @CNN "reporters." #GOPDebate @realDonaldTrump'
p344
aS'@RavingRaver: My response when @megynkelly tried to call @realDonaldTrump a sexist: "CAN\'T STUMP THE TRUMP!" #GOPDebate'
p345
aS'#gopdebate Trump says on the one hand everyone is too PC. EXCEPT when Megan Kelly hurt HIS feelings NOW he might not be nice to HER anymore.'
p346
aS'Tried watching the #GOPDebate for entertainment purposes  All them candidates made my nerves bad #DonaldTrump'
p347
aS"If you missed last night's #GOPDebate, here's the only recap video you need to watch.  https://t.co/DAr78Vp3LX"
p348
aS'@rumpfshaker: "We have to make our country great again and I will do that!" Donald Trump, who still can\'t quite explain HOW. #gopdebate'
p349
aS'Trump calling @megynkelly a bimbo is reprehensible. This is about choosing a candidate for president NOT the Jerry Springer hour. #GOPDebate'
p350
aS'@billmaher: Enough with hating on Trump for being misogynist! Get to the part where these 10 guys debate whether Amy Schumer is fuckable\x89\xdb_'
p351
aS'I think donald trump is hilarious #GOPDebate'
p352
aS'@OccupyWallStNYC: Donald Trump: I have successfully lied and cheated and manipulated for personal gain. So pick me! #Bankruptcy #GOPDeba\x89\xdb_'
p353
aS'@Ricky_Vaughn99: Fox News tries to get the GOP to gang up on Trump and Kasich curb stomps Chris Wallace #cuckservative #GOPDebate'
p354
aS'I wish I could bitch slap shit out a Donald Trump him and Ted Cruz.And some other candidates were annoying.#GOPDebate'
p355
aS'Learn how to get away with sexism in 5 easy steps from @realdonaldtrump #GOPdebate  via @voxdotcom\rhttp://t.co/TDTyFtWEcp'
p356
aS'This may be Trump\'s best qualification to be president, "The Art of the Comb Over". #GOPDebate #not #epicfail #funny http://t.co/QI3v8zqKdh'
p357
aS'Illegal immigration has been talked about before @realDonaldTrump started speaking of it. #arrogant #ignorant #GOPDebate'
p358
aS"@realDonaldTrump's incivility &amp; arrogance continues after @FoxNews #GOPDebate. http://t.co/nXoWLLfsIb http://t.co/oQawDkxERe"
p359
aS'Trump Donated &amp; Supported Hillary and Democrats for YEARS that fact ALONE- DISQUALIFIES HIM #tcot #GOPDebate #ccot'
p360
aS'@MolonLabe1776us: Are you a RINO @megynkelly?\r#GOPDebate @realDonaldTrump http://t.co/TiHcyiqMS0'
p361
aS'@M0L0NL4BE: Extremely UNFAIR for @BretBaier to kickoff the #GOPDebate with an attack on one specific candidate @realDonaldTrump \x89\xdb_ @Reinc\x89\xdb_'
p362
aS'Donald Trump got a few things wrong at the #GOPDebate http://t.co/bm2lUGqqJz @jamesaking41 @vocativ http://t.co/K3sfGctrBU'
p363
aS'@ThatFoxyShadow: The whole #GOPDebate was simply a scheme by Fox News to attack #Trump &amp; build up Jeb &amp; the rest of the #cuckservative g\x89\xdb_'
p364
aS"Just tellin' it like it is. No wonder everyone is out to get him. #GOPDebate #TCOT https://t.co/40026Hgs07"
p365
aS'@renomarky: If you @megynkelly think that your question to @realDonaldTrump to begin #GOPDebate was FAIR &amp; BALANCED..... http://t.co/TKe\x89\xdb_'
p366
aS'@rumpfshaker: "I have never gone bankrupt," says Trump who has multiple businesses that went thru bankruptcy, screwed creditors out of m\x89\xdb_'
p367
aS"The most truthy analysis of the #GOPDebate last night was when @ChrisStirewalt quipped the @realDonaldTrump had a 'HoneyBadger' attitude."
p368
aS'trump\'s answer for why he was until recently a Democrat was less than satisfying. "I\'m from New York" - that\'s his excuse? phony! #GOPDebate'
p369
aS'@Wolfrum: "Oh Donald, again with your angry misogyny. You are just incorrigible. Now tell us more about Trump Wall." -- #GOPDebate'
p370
aS"Advice to #GOP candidates in order of how they finished 1st Donald Trump Add detail for debte 2  Don't play prevent  #gopdebate #tcot #p2"
p371
aS"Trump disagreeing with Megyn Kelly's pointed, somewhat gotcha questions does not equate to her being a bimbo. &lt;sigh&gt; #gopdebate"
p372
aS'#GOPDebate @chriswallace @megynkelly @BretBaier I was really looking forward to a real debate of the candidates not an attack on Trump'
p373
aS"Government can fu*k up so bad that an event like #Benghazi unfolds, but let's make a big deal about Trump calling someone a dog. #GOPDebate"
p374
aS'@ThatsJustBogus: The day after the #GOPDebate a man who is mean to everybody is complaining about everybody being mean to him. #TrumpThe\x89\xdb_'
p375
aS'@larryelder: Donald Trump said, "Single-payer works in Canada." No...it...does...not!!! 20 reasons why not:\rhttp://t.co/uR9oz95p9F\r#GOPD\x89\xdb_'
p376
aS'Trump = Obama = Paranoid egomaniacs always blaming others. \r\r#DemocratsThinkAlike\r\r#GOPDebate'
p377
aS'@GhesheS: #GOPDebate: Trump Trumped! http://t.co/zWIN7P0vhH'
p378
aS"How @realDonaldTrump imagined he performed at last night's #GOPDebate? https://t.co/J1UhtFQzii"
p379
aS'@buckle2: The scary part about the #GOPDebate is that Trump won and is still leading the polls. Is America serious about making him Pres\x89\xdb_'
p380
aS'#TheDonald says re: calling #women dogs, disgusting animals: "We have a lot of fun, I say what I say." #TrumpMisogynist #misogyny #GOPDebate'
p381
aS'TRUMP: "MORE ADAM SANDLER MOVIES!" #MakeAmericaFartAgain #GOPDebate'
p382
aS'Kept wondering where The Donald left his pinky ring and gold chains were, what with his used car salesman gesturing/talk. #GOPDebate'
p383
aS'@megynkelly: .@realDonaldTrump:  If it weren\x89\xdb\xaat for me you wouldn\x89\xdb\xaat even be talking about illegal immigration #GOPDebate'
p384
aS"@megynkelly needs to get in the kitchen and make @realDonaldTrump a sandwich.  She doesn't belong in that setting with him. #GOPDebate"
p385
aS'@senatorshoshana: If @realDonaldTrump is complaining about hard questions from a "bimbo" like @megynkelly, how is he to lead America? #G\x89\xdb_'
p386
aS'A weave on your head should look like you own the hair. If I see anymore glue,  I will scream. Looking like Trump\r#weave\r#GOPDebate \r#bad'
p387
aS'American voters deserved better questions for @realDonaldTrump during #GOPDebate @FoxNews knew better... #EPICFAIL https://t.co/xtOsLXWf43'
p388
aS"@docmurdock: Love how .@megynkelly BAITED .@realDonaldTrump with women question. Then he gave .@Rosie airtime she couldn't have paid for\x89\xdb_"
p389
aS'#GOPDebate Anyone who cheered when Trump was asked about his comments towards women, you are part of the problem. #feminism #UniteBlue'
p390
aS"@FrankLuntz can count and ask simple questions, short of that I don't see much wisdom!  @realDonaldTrump #GOPDebate"
p391
aS".@realDonaldTrump should answer @jdharm's hard-hitting question from last night's #GOPDebate @sternshow @HowardStern http://t.co/cF3m0LEHUa"
p392
aS'I miss the days when conservatives wanted a @GOP Presidential candidate who was, you know, a conservative... #Trump #GOPDebate #tcot'
p393
aS'Foxylady #MegynKelly stood up to that Tramp \r#GOPDebate #Trump #USA2016 #FoxDebate http://t.co/YYb9cSKrO2'
p394
aS'@HeyHayward: EXCLUSIVE: Trump reveals renderings for border wall #GOPDebate http://t.co/ZLxsFcQAMr'
p395
aS'@svme: Did Donald endorse Ben Carson when he said this country needs someone with a brain? #BATsAsk #GOPDebate'
p396
aS"#gopdebate \rTrump says it's FUN to call women animals. \rTHAT audience APPLAUDED his misogyny. \rOutrageous! All Republicans are misogynists."
p397
aS'@Brenkoski: She @megynkelly is a horrible commentator  @FoxNews did a terrible job last night, very DISAPPOINTING! #GOPDebate  https://t\x89\xdb_'
p398
aS'@greysonchance: Watching the #GOPDebate with my parents. Different generational views, but we can still laugh at Trump together. http://\x89\xdb_'
p399
aS'@WayneDupreeShow: @FoxNews is still trying 2 destroy @RealDonaldTrump huh?\r\rGuess they have to cover up why they only spent 1:30 on race\x89\xdb_'
p400
aS'If you listen closely,all the Repub. candidates r talking the same nonsense as Trump. .@NYTimeskrugman: http://t.co/KQemVNMXja \r#GOPDebate'
p401
aS'During the #GOPDebate, @megynkelly used biased personal attacks on @realDonaldTrump. We wanted to hear legitimate questions. Shameful.'
p402
aS"Fox &amp; executives' attempt to kill Trump's buzz/momentum could have had the opposite effect -- a 'martyr effect.' #GOPDebate"
p403
aS'@BreeNewsome: Donald Trump is the Nene Leaks of the Republican Party. READ, HONEY, READ. _\xd9\xf7\xe2 #GOPDebate'
p404
aS'Trump wants a "big beautiful door" in a wall for immigration. This door is on his fly. #GOPDebate #Wives'
p405
aS'#GOPDebate @foxnewspolitics I was really looking for a debate of the candidates not an attack on Trump - #notfair #notbalanced'
p406
aS'@ullikemike: #Trump was spot on in his description of business bankruptcies. Playing by same rules as all businesses. #GOPDebate  https:\x89\xdb_'
p407
aS'@VishalDisawar: .@realDonaldTrump - "We need to keep illegals out". How about we keep Donald Trump out. #GOPDebate #immigration'
p408
aS'If @realDonaldTrump is complaining about hard questions from a "bimbo" like @megynkelly, how is he to lead America? #GOPDebate'
p409
aS'Hard to take sides in the Donald Trump vs. Megyn Kelly dilemma when both are equally deplorable. #GOPDebate'
p410
aS"@mitchellreports Trump is negotiating a deal w/ the GOP! He's leveraging by threatening to go 3rd party unless he's the nominee. #GOPDebate"
p411
aS"@megynkelly I'm so disappointed. I lost total respect for you and will no longer watch your show! @realDonaldTrump #GOPDebate #Trump2016"
p412
aS"@DrZhivag0: I think after the #GOPDebate  last night it's official. Our election process has officially become a reality show! Trump/Kar\x89\xdb_"
p413
aS'@megynkelly #KellyFile Ur inner @KarlRove was on full display at #GOPDebate against @realDonaldTrump. No wonder #CNN and #NYTimes loved it.'
p414
aS'Honestly, Donald Trump you were ALL types of petty at last night\'s #GOPDebate \x95\xc0_\x95\xc0_ --&gt; http://t.co/6WIztltokv http://t.co/aHgh2Cb4mg"'
p415
aS'@thehumangraham: How the hell do people come to the conclusion that @realDonaldTrump won the debate by a landslide !! #StandWithRand #GO\x89\xdb_'
p416
aS"So we have Americans getting beheaded overseas and @megynkelly is worried whether @realDonaldTrump calls Rosie O'Donnell fat? #GOPDebate"
p417
aS".@realDonaldTrump mightn't have declared bankruptcy, but now that corporations are people, his corporate offspring have #GOPDebate"
p418
aS"Love how .@megynkelly BAITED .@realDonaldTrump with women question. Then he gave .@Rosie airtime she couldn't have paid for. #GOPDebate"
p419
aS"I think after the #GOPDebate  last night it's official. Our election process has officially become a reality show! Trump/Kardashian 2016?"
p420
aS'Preview of Donald Trump tonight at the #GOPDebate (Vine by @CaseyBake16) https://t.co/KqJCtDAuqf'
p421
aS'Love this! Hilarious. #GOPDebate @realDonaldTrump  https://t.co/gKdaQXMum2'
p422
aS'@realDonaldTrump Calling someone a fat pig isn\'t about "tone" #GOPDebate  https://t.co/2B39l6KSbD'
p423
aS'Donald Trump reminds me of Frank Underwood from @HouseofCards. Nothing good can come from this. #huffpost #GOPDebate #politricks'
p424
aS'Received a call from @realDonaldTrump begging me to watch #GOPDebate &amp; judge him over performance he put in.'
p425
aS".@IvankaTrump Call your father out re: comments about @Rosie. Supposedly he listens to you. SHAMEFUL. You've got daughters. #GOPDebate"
p426
aS'@jenniferweiner: So Trump is proud of making money in Atlantic City? Or proud of filing for bankruptcy and leaving? #GOPDebate'
p427
aS'@_HankRearden: Trump haters seem especially mad today. I wonder why lol? Whiny little bitches should get over it. #GOPDebate'
p428
aS"My take on the #GOPDebate . @realDonaldTrump talked too much about how great he is zero on his plan. @SenTedCruz didn't get to talk enough."
p429
aS'@realDonaldTrump @FrankLuntz Mr. Trump, do you have any idea how unhinged, bitter, vindictive, and petty you sound with this? #GOPDebate'
p430
aS"@SeaBassThePhish: What if Donald Trump has been a liberal this whole time and he's just running to prove how stupid the GOP is? #GOPDeba\x89\xdb_"
p431
aS"So,we can poke at #trump for the nasty things he said to Rosie in the past but, who hadn't shot off their mouth?#skeletons anyone?#GOPDebate"
p432
aS"So @realDonaldTrump calls women fat pigs disgusting animals. Sez just kidding, we're having fun.  What's this we, white man? #GOPDebate"
p433
aS"If @megynkelly is a bimbo, as @realDonaldTrump says, shouldn't he have had a super easy time answering her questions? #GOPDebate"
p434
aS'@peddoc63: This is why @realDonaldTrump is polling so high! Got it_\xd9\xd4\xe4_\xd9\x8f_LIARS\x89\xcf\xd3\x95\xfc\x8f @jimlibertarian @MaydnUSA #GOPDebate @CarmineZozzora http://\x89\xdb_'
p435
aS'@BitchestheCat: No rapists in my backyard. Sorry @realDonaldTrump #GOPDebate #bitches2016 #AmericaMeow http://t.co/n6o8SY2231'
p436
aS"@saramarietweets: You should've made @realDonaldTrump answer about God, @FoxNews @megynkelly @BretBaier. That's crappy that u didn't. #G\x89\xdb_"
p437
aS'#GOPDebate @realDonaldTrump got the most time out of all the other ten people. #isthisajoke #DonaldTrump'
p438
aS"For someone who doesn't care who he offends, really gets offended easily... #GOPDebate #talkingaboutyoutrump @megynkelly"
p439
aS"It's official; #Trump is GOP's Frankenstein 'a monster &amp;they cannot control him #GOPdebate #AboutLastNight  http://t.co/n2X8mQYFS6"
p440
aS'So the @realDonaldTrump is running so he can be in his own pocket instead of bribing politicians second hand #GOPdebate'
p441
aS'@foxandfriends @realDonaldTrump #GOPDebate Debates SHOULD be, "Why we should vote for you" NOT LOW BLOW Q\'s and Personal Attacks!'
p442
aS'Is someone going to ask the other GOP candidates why someone so racist and sexist is appealing to their party? #Trump #GOPDebate #2016'
p443
aS"@madiallman: Trump's the drunk guy no one wants at the party #GOPDebate"
p444
aS"Trump Donated to Hillary &amp; supported Dems for YEARS-Now he says he's conservative &amp; runs 3rd party?? NO SUPPORT #Tcot #GOPDebate #ccot"
p445
aS'Language is beautiful http://t.co/GFyTi5ilVC #GOPDebate #DonaldTrump'
p446
aS'The bottom line - @realDonaldTrump was dirty-worked by two A-list @FoxNews anchors. Not sure why. But it definitely happened. #GOPDebate'
p447
aS'#GOPdebate takeaway: #America is a country that applauds a bully, fears foreigners, and wants the system to be... http://t.co/pTXCIt493m'
p448
aS'How can anyone take Trump seriously? #GOPdebate'
p449
aS'#TPFA @TPFA_KathyA_1&lt;=Declined 2 comment\rCan\'t locate "Proe"\r$100 says ants didn\'t watch #GOPDebate @realDonaldTrump http://t.co/2VgoCBDpyX'
p450
aS'@rushlimbaugh yep @megynkelly sucked at #GOPDebate  @realDonaldTrump  country is in a mess &amp; debate questions Terrible'
p451
aS"So we're going to talk about Trump's bankruptcies but not Fiorina's tenure at HP?\r\rAdorbs.\r\r#GOPDebate"
p452
aS'Preview of Donald Trump tonight at the #GOPDebate (Vine by @CaseyBake16) https://t.co/NfoIPr3Vej'
p453
aS"@Atheist_Tweeter: I hate #FoxNews as much as the next sane person, but I'll give it to them, they don't like Trump and aren't afraid to \x89\xdb_"
p454
aS'@AmyMek: How pathetic &amp; transparent -&gt;.@FrankLuntz goes right after @realDonaldTrump &amp; is doing his best to push Rhinos! #GOPDebate'
p455
aS"@megynkelly reminded me of @HillaryClinton last night, and that's NOT a compliment! #GOPDebate #GoTrump @realDonaldTrump"
p456
aS'@RMConservative: #GOPDebate: Did Cruz Trump Trump Last Night?  https://t.co/yrjQln6Ibb via @CR'
p457
aS'Millions of #Conservative #Americans, myself included, find the #misogyny of  #DonaldTrump totally offensive and unacceptable. #GOPDebate'
p458
aS'"Oh Donald, again with your angry misogyny. You are just incorrigible. Now tell us more about Trump Wall." -- #GOPDebate'
p459
aS'@kylebelanger1: #UponFurtherReview: #DonaldTrump was the dad in the #ODoyleRules family. #BillyMaddison #VapidBully #GOPDebate... http:/\x89\xdb_'
p460
aS"How can anyone take @realDonaldTrump seriously when he's talking about Rosie O'Donnell at a debate? #GOPDebate #asshat"
p461
aS'@realDonaldTrump, did you realize that even @FoxNews forgot about our Vets last night? It only came up at the last min. So sad. #GOPDebate'
p462
aS'#GOPDebate RE: audience cheer at Trumps insults: Anyone who takes delight in hurting others needs to examine the state of their own soul.'
p463
aS'Did @FoxNews, which excluded the only woman in @GOP field from first debate, ask Trump if he was part of the "war on women"? Yep.\r#GOPDebate'
p464
aS"If he didn't before,@realDonaldTrump is gonna have a war on @megynkelly now! #justwar #GOPdebate"
p465
aS"http://t.co/OvG0auASYi... oh my, really? y'all thought @realDonaldTrump won last nights #GOPDebate"
p466
aS'I suspect if I watched the #GOPDebate I would need to keep a bucket handy. I saw the Trump clip and threw up in my mouth within 10 secs.'
p467
aS'Imagine a #Trump Administration dealing with a US-Russia crisis. \r\rWWIII #GOPDebate'
p468
aS"@newlinla: My friends' 3-year-old's thoughts on Donald Trump are hilarious. #UniteBlue #GOPDebate http://t.co/gJ37M8NaM9"
p469
aS"Tough to watch the #GOPDebate and not sense that @FoxNews' line of questioning was trying to depose @realDonaldTrump and anoint Jeb."
p470
aS"Trump didn't pledge to not run third party, but I'll pledge to vote third party if he's the nominee. http://t.co/3teP5ZSZUn #GOPDebate"
p471
aS"@michaelsnook: I can't wait for the meme about Donald Trump's beautiful, classy door at the border. #GOPDebate"
p472
aS"@ThePatriot143: The most surprising part of last nights #GOPDebate was that @megynkelly didn't attack Trumps hair. @realDonaldTrump"
p473
aS"With some of @realDonaldTrump's past positions, it would have been fun to see him run against @HillaryClinton in Democrat Primary #GOPDebate"
p474
aS"@bamasevere: Megyn Kelly shouldn't be worried about Trump's party loyalty. We watched her transform to a liberal in 3 hours. #GOPDebate"
p475
aS'@CaseyWertz_: .@FoxNews How much did the rest of the group pay you to give them real questions and give .@realDonaldTrump bullshit quest\x89\xdb_'
p476
aS'So I guess Trump Is paying off people to win debates now. _\xd9\xf7\xe2 #GOPDebate'
p477
aS'Donald Trumps attack on Megyn Kelly prove her point for her that he has a woman problem. Unless they like him he attacks them. #GOPDebate'
p478
aS"What I'm reading says Donald Trump was front runner &amp; star of #GOPDebate! Like how is this possible? Wasn't he boo'ed? #WasntAbletoWatch"
p479
aS'Seriously, #Trump is dangerous for the whole world. #GOPDebate'
p480
aS'@jenniferweiner: Trump\'s going to say he fired God. Or that God auditioned for "Celebrity Apprentice" and Trump turned him down. #GOPDeb\x89\xdb_'
p481
aS'\x89\xdb\xcfTrump showed what kind of Republican he truly is \x89\xdb\xd3 the snake variety\x89\xdb\x9d http://t.co/aQzGeGt7Tb via @debrajsaunders #GOPDebate'
p482
aS'@DillonFox5: No surprise here. \rTrump: "I don\'t have time for political correctness" \r #fox5atl #GOPDebate'
p483
aS'@OutSideDBox1: @Livestream #GOPDebate either way if Donald Trump runs as an Independent which no one will vote for anyway'
p484
aS"Last night's #GOPDebate was not a debate at all. Trump dominated the show &amp; t'was unfair to other candidates such as #BenCarson , etc."
p485
aS'@guypbenson @megynkelly was as good as any Fox commentator could be. Thank you for calling out his cral Megyn! #GOPDebate'
p486
aS'All the #GOPDebate coverage focuses on Trump, but besides some zingers was a crappy performance. Cldnt answer most direct/pointed questions.'
p487
aS'Does #Trump2016 negotiate the price by voter? #GOPDebate "I\'m discussing it with everybody... talking about a lot of leverage" @BretBaier'
p488
aS"@RWSurferGirl: Why is FOX telling it's viewers not to support Trump. I think that is disengenuous! Is Cruz next? FOX News is in love wit\x89\xdb_"
p489
aS'@FrankLuntz #GOPDebate focus group looked like it might be a Luntz family renunion! Real @realDonaldTrump supporters are LOL at you! #joke'
p490
aS'@Mobute ..... If he gets the nod, he will be stopped in the general election. If not, he will hand the election to the dems #GOPDebate'
p491
aS'#DonaldTrump said a whole heck of a lot, but "Ben Carson doesn\'t have any policy ideas" #GOPClownShow #GOPDebate  https://t.co/tIrxOlDwVe'
p492
aS'@MercuryOneOC: The gave Trump twice as much speaking time as Walker #GOPdebate \r#TCOT #LNYHBT'
p493
aS'@Reince you are an IDIOT and @realDonaldTrump is a Racist Nativist. We need a New Chairman..  you stink.. #GOPDebate #Trump2016'
p494
aS'Hairball ended his clown campaign. Trump debating is like giving a loaded gun to a monkey. You watch only to see who gets shot. #GOPDebate'
p495
aS"@goldengateblond: The one thing I've learned here is Donald Trump's co-stars on his new reality show don't seem to like him very much. #\x89\xdb_"
p496
aS'So,@realDonaldTrump  is now whining because questions posed were not fair. #whinybaby #notpresidential #GOPDebate'
p497
aS".@realDonaldTrump might've shot himself in the foot losing the support of women with this behavior http://t.co/JA96Jes4oU #GOPDebate"
p498
aS'@hiphughes: "America is stupid. Mexico is really smart. Elect me or you\'re stupid too." ~Donald Trump #GOPDebate'
p499
aS'@realDonaldTrump is a breath of fresh air but increasingly careless and generic. Long road to the #WhiteHouse; could get stale #GOPDebate'
p500
aS'.@realDonaldTrump: Now some of the people you would least expect are calling me up and apologizing. #Hannity #GOPDebate'
p501
aS'@bree_mars: So about that "pledge"...I\'ll just leave this right here. @realDonaldTrump @RandPaul @RonPaul @DanScavino #GOPDebate http://\x89\xdb_'
p502
aS'Donald #Trump: great television, horrible statesmanship. @realDonaldTrump #GOPDebate And don\'t call me a "hater" because I am not. #Sad'
p503
aS"@michelleeeers: It's really hard to believe Donald Trump wasn't created by God as a work of satire #GOPDebate"
p504
aS'@kyaecker: Love to hear an apology from @megynkelly to @realDonaldTrump for dragging the debate into the toilet #gopdebate'
p505
aS'@moe67 Oh I\'m sure it did. Headlines this morning "#GOPDebate winners weren\'t #Trump or Jeb" Shocker  Boring BB show w Derrick  #BB17'
p506
aS'Could @FoxNews be any more blatant about their dislike for @realDonaldTrump? I dislike him BUT this was an uneven playing field.#GOPDebate'
p507
aS'@feministabulous: Remember when Trump didn\'t apologize for calling women "\'fat pigs" "dogs" and "disgusting animals"? \rhttp://t.co/QgwM5\x89\xdb_'
p508
aS"FOR SHIT'S SAKE... TURN ON THE TV AND IT WAS STILL ON FOX FROM THE #GOPDebate AND ALL I SEE IS PEOPLE GOBBLING @realDonaldTrump 'S KNOB."
p509
aS'@HellBlazeRaiser: @FoxNews @megynkelly @BretBaier court @realDonaldTrump to boost their ratings, but try to undermine him at the #GOPDeb\x89\xdb_'
p510
aS'Trump tanked, so you ignore every single other candidate?? #txot #ccot #GOPDebate'
p511
aS"Waiting for the internet to do a mash-up of @realDonaldTrump's #GOPDebate highlights &amp; @RaeSremmurd's Up Like Trump: https://t.co/sZQBYrQwwz"
p512
aS'@bengeesaman: Trump answers every question with an insult that is completely off topic. _\xd9\xf7\xe2 #GOPDebate'
p513
aS"To make it easier for you younger folks to understand...\r\r@realDonaldTrump's douchebaggery game is on FLEEK!\r\r#GOPDebate #whatadick"
p514
aS"@socknstocks: I feel like trump's hair is enough to tell u he doesn't have a handle on things #GOPDebate"
p515
aS'I was looking forward 2 a fair &amp; substantive #GOPDebate what i got was 3 Trump hating,libeRino Jeb luvin gop estab butt kissin tabloid filth'
p516
aS"Trump should become host of Fox News... maybe I'd actually watch it. Stand-up comedy at its finest #GOPDebate"
p517
aS"An illegal alien can be deported 5 X, make it back into the country, kill an American woman, but Trump can't call someone a dog. #GOPDebate"
p518
aS'Watching realDonaldTrump burn bridges to The WhiteHouse #Bernie2016  #GOPDebate http://t.co/6bJ5TjNLIu'
p519
aS'@captdope: Lessons learnt. Women must have babies. Education dumb. War good. Obama Stupid. Fuck immigrants. Trump Smartz. No healthcare \x89\xdb_'
p520
aS'TaylorTwo9: RT WayneDupreeShow: Disagree all you want\r\r#GOPDebate was hit job on realDonaldTrump and calculated mu\x89\xdb_ http://t.co/AuhlNZa3Ww'
p521
aS'Lourack1: RT RollingStone: Fox News targeted Donald Trump at the #GOPDebate, but can Republicans call off the smug\x89\xdb_ http://t.co/AuhlNZa3Ww'
p522
aS'@OhsnapItsJenni: I think by calling @megynkelly a bimbo, &amp; generally denigrating her, @realDonaldTrump proved her concern about misogyny\x89\xdb_'
p523
aS'restorereality: Fuck ya Donald Trump you rocked #GOPDebate smoking all those pathetic career politicians! Keep up \x89\xdb_ http://t.co/AuhlNZa3Ww'
p524
aS'Trump sycophants want to know what @megynkelly\'s "hidden agenda" was last night. Answer is simple: it\'s called a vagina. #GOPDebate'
p525
aS'@PostGraphics @FactTank Rate of speech can indicate confidence.Too fast, a swindler;too slow,unprepared #GOPDebate http://t.co/Fs7R705Es9'
p526
aS'@patriotmom61: Did you know? Rick Santorum on Donald Trump and Donald Trump on Blue Collar Conservatives https://t.co/duUPR696nr #GOPDeb\x89\xdb_'
p527
aS'@realDonaldTrump was an incredibly unprofessional bitch who broke down the moment he realized everything was going wrong for him.#GOPDebate'
p528
aS"Trump proved he's a Trojan Horse &amp; running 3rd party which NO ONE should support #tcot #GOPDebate #ccot"
p529
aS'#AmericasGotFailent      "@TheDemocrats: #GOPDebate is looking a lot like this: http://t.co/yqR5yBMolF\x89\xdb\x9d #TrumpEffect\x89\xdb\x9d'
p530
aS'@RealAlexJones @libertytarian @JakariJax @LeeAnnMcAdoo Wether @realDonaldTrump is a trojan horse or not, is he worth a punt? #GOPDebate'
p531
aS"@ThePatriot143: Rosie O\x89\xdb\xaaDonnell To Donald Trump: 'Try Explaining That 2 UR Kids': Like Explaining They Have 2 MOMs? #GOPDebate  http://t\x89\xdb_"
p532
aS".@RealDonaldTrump Saw his shadow at #GOPDebate so he'll be with us for another six weeks."
p533
aS'Republican debate: Trump was garbled, incoherent \x89\xdb\xd2 but dominant http://t.co/jJhTkyoVmL #gopdebate'
p534
aS'@JimSterling: Donald Trump. Literally a five-headed dragon. #GOPDebate'
p535
aS"@ayeedxnny: It's shocking that there are people out there who are supporting Donald Trump's ideas on running the country  cmon he's a jo\x89\xdb_"
p536
aS"@jjauthor: Now if only @realDonaldTrump will go after ISIS and Democrats like he does Rosie O'Donnell &amp; the @foxnews moderators! #GOPDeb\x89\xdb_"
p537
aS'@cenkuygur: My 5 year-old son saw @realDonaldTrump on TV and said, "Dad, the clown is on TV!" #GOPDebate'
p538
aS'@GeneMcVay: #GOPDebate Was not a debate, it was a full fledged attack against Trump followed by more attacks on Trump. 2008 &amp; 2012 AGAIN.'
p539
aS"The Republican Party wakes up with a huge hangover, a splitting headache and no idea why it's in bed with Donald Trump. #GOPDebate #RSG15"
p540
aS'@KateAronoff: "I had the good sense to leave Atlantic City." Back off Jersey, Trump. Back. the. fuck. up. #GOPDebate'
p541
aS"@WayneDupreeShow: 2nit's Q&amp;A was a turkey shoot. Kelly and Wallace totally emptied their clips going after @realDonaldTrump \r\rWas Sad!\r\r\x89\xdb_"
p542
aS'FrankLuntz LOL sham focus group, a bunch of Bush/RNC plants! #Trump2016 won #GOPDebate hands down! http://t.co/zQphlSqDUn'
p543
aS"So @realDonaldTrump attacks anyone that doesn't agree with him??? Isn't that what Obama does. #GOPDebate #tcot"
p544
aS'@jangajentaan: Trump: I have no time for political correctness\r#GOPDebate'
p545
aS'So how long before Donald Trump gets distracted by a different shiny object? #Squirrel \rI felt embarrassed for my nation during #GOPDebate'
p546
aS'@chrissiefit: If I tap my heels together 3 times will Donald Trump go away forever? #BigBeautifulDoor #GOPDebate http://t.co/M2Ua3a3VK9'
p547
aS"Donald Trump is the first person I've heard frame misogyny as a time management issue.  #GOPDebate"
p548
aS"The Clowns performed well in last night's circus. With Donald Trump as the Ring Master #GOPDebate #GOPClownCar"
p549
aS'@SereDoc: So Trump uses the GOP stage as he wants but reserves the right to destroy GOP chances in 2016 at any time? Great GOP leadershi\x89\xdb_'
p550
aS'@FrankConniff I\'m confused. Was "It\'s clobberin\' time" something said in #FantasticFour or by Trump in the #GOPDebate?'
p551
aS"@kesgardner: Trump: I have used the laws of this country to rip other people off. And I'm awesome for doing it! Or words to that effect.\x89\xdb_"
p552
aS'Limbaugh says @realDonaldTrump "reactive" &amp; too inside the rules. #GOPDebate'
p553
aS'Hearing discussion of the #gopdebate with Trump as an honest candidate makes me question my radio station choice.'
p554
aS'Donald Trump: \x89\xdb\xcfBimbo\x89\xdb\x9d Megyn Kelly behaved \x89\xdb\xcfunprofessionally\x89\xdb\x9d and \x89\xdb\xcfvery badly personally\x89\xdb\x9d during #GOPDebate. http://t.co/RGlmP105NA'
p555
aS'@DoctorGooFee: #GOPDebate...#Trump...if he hadn\'t before...last night...likely lost the "#ChubClub" Vote..\r#RosieODonnell'
p556
aS"Did they really not mention Trump's comments about John McCain and POWs last night during #GOPDebate or did I miss it ?"
p557
aS'This is how @bpolitics describes Megyn Kelly before quoting her Trump sexist comments question. Irony? #GOPDebate http://t.co/e1dHZKtjDw'
p558
aS"What if Donald Trump has been a liberal this whole time and he's just running to prove how stupid the GOP is? #GOPDebate"
p559
aS'@GlitchxCity: Donald Trump is only a publicity stunt and a phase right? Right? #GOPDebate'
p560
aS'@carljacksonshow: #Trump likes socialized med and paying off corrupt politicians. Conservatives like him, why?#GOPDebate'
p561
aS"EmmaJeter: Watching more on the #GOPDebate and if Donald Trump wasn't such a misogynist pig he wouldn't be a compl\x89\xdb_ http://t.co/AuhlNZa3Ww"
p562
aS'@RealAlexJones  After watching the debate, i felt that Donald Trump is the new Ross Perot. Do you feel this way as well? #GOPDebate'
p563
aS'@megynkelly KILLED it last night, and @realDonaldTrump came off as his normal petulant, name calling, thin-skinned self. #GOPDebate'
p564
aS"@realDonaldTrump seems a little flustered about @megynkelly... what, can't handle being called out for being trash? #GOPDebate"
p565
aS"@DanielGenseric: .@megynkelly doesn't like @realDonaldTrump or @AnnCoulter. I wonder why. #AntiWhites FORCE #immigration/#assimilation. \x89\xdb_"
p566
aS"Trump: the candidate for people who haven't meaningfully updated their views since they saw Rising Sun in theatres. #GOPDebate"
p567
aS'@Livestream #GOPDebate either way if Donald Trump runs as an Independent which no one will vote for anyway'
p568
aS'is suffering from an existential crisis.  Is there a need for @WallyWeeins when we have a @RealDonaldTrump?  #GOPDebate #GOP2016'
p569
aS'I do like #DonaldTrump for his ability to dig his own grave. #GOPDebate'
p570
aS'@jjauthor: The policies of Barack Obama have managed to provide neither peace nor prosperity! #GOPDebate @realDonaldTrump @tedcruz'
p571
aS'Dear Internet, can we start #trumping as a thing? Did I make a thing? #trumping #Trump #GOPDebate http://t.co/MI35fDFFmy'
p572
aS'So, I watched quite a bit of the GOP Debate. Trump is an idiot. #trumpisanidiot #GOPDebate #Libertarian'
p573
aS'Donald Trump Parody - FUNNY! https://t.co/NeymfCdJ4O #GOPDebate #Trump #Trump2016 #TrumpEffect #TheGoodLife #Trumpdates #Awepra'
p574
aS'@hemantmehta: Trump\'s idea of "proof" is to talk louder. #GOPDebate'
p575
aS'@realDonaldTrump need to grow some thicker skin, the @FoxNews moderator are not the problem. #GOPDebate'
p576
aS'The day after the #GOPDebate a man who is mean to everybody is complaining about everybody being mean to him. #TrumpTheWhiner'
p577
aS'gop will keep looking inept next to trump until they can say, "some of you people don\'t mean shit to me." as well as he does #GOPDebate'
p578
aS'Why do you want people at your wedding whose presence has to be commanded? @realDonaldTrump  @TMP  #GOPDebate  #GodfatherTrump'
p579
aS'@ShonTony: \x89\xdb\xcf@TheDemocrats: #GOPDebate is looking a lot like this: http://t.co/W8UMl4Cyee\x89\xdb\x9d #TrumpEffect'
p580
aS'Trump proud of misogyny tries to intimidate her. Ugh.\rDonald Trump &amp; Megyn Kelly at the Fox News #GOPdebate  http://t.co/PGQBMaRAGr'
p581
aS"Oh Poor,  Trojan Horse Trump pouting because he's a VICTIM Now?? #tcot #ccot #GOPDebate"
p582
aS"@Livestream #GOPDebate as a blogger  the debate was about making sure Donald Trump doesn't pull a Rose Perot, that is how Clinton won"
p583
aS'"I don\'t insult women, but the woman who brought it up is a bimbo." - Trump\r\r#GOPDebate'
p584
aS'Politicians like .@HillaryClinton can accept money 4 campaigns from foreign donors, but Trump can\'t call someone a "fat pig." #GOPDebate #PC'
p585
aS"@megynkelly #GOPDebate What's your thoughts on the comments on your Facebook page concerning #Trump ?s having a Motive behind them"
p586
aS'.@realDonaldTrump Aww, does him have a sad because he thinks the Fox News reporter was mean during the debate? #GOPDebate #DonaldTrump'
p587
aS'#Out. Who do you think ur demographic is? Smart women dislike Trump. He was in over his head in #GOPDebate. He has zero policy specifics.'
p588
aS"@Diplomtc_Immnty: @MegynKelly tried to take out @realDonaldTrump &amp; got her azz handed to her. Now she's playing the victim-card. Own it \x89\xdb_"
p589
aS"@Diplomtc_Immnty: @MegynKelly don't try to take out someone, then whine about it by playing the victim-card after you get owned.\r@realDo\x89\xdb_"
p590
aS'Fire at @Reince. Fox scut dogs given the job of outing Trump as someone willing to use GOP but with no GOP loyalty? #GOPDebate'
p591
aS'I think we should call what #foxnews did to #trump last night the #humptrump campaign. #gopdebate'
p592
aS'Fox to Trump: Your financial practices are a shitty mess. How will you differ as POTUS?\r\rTrump: I won\x89\xdb\xaat. Other people did it too. #GOPDebate'
p593
aS"@BBCNewsUS @realDonaldTrump Then u need to stop CRYING when you get questions you don't like. Toughen UP! Stop being such a baby #GOPDebate"
p594
aS'@BernardGoldberg: Does Donald EVER answer a direct question? #GOPDebate'
p595
aS'@imoore8904: Trump supporters tee hee &amp; laugh when he insults everyone under the sun. Cry foul when @megynkelly calls him on his shit. #\x89\xdb_'
p596
aS"wwahammy: RT JRehling: #GOPDebate Donald Trump says that he doesn't have time for political correctness. How does \x89\xdb_ http://t.co/AuhlNZa3Ww"
p597
aS"RightDishonour: The Republicans' problem is not Trump, but the other 16 candidates #GOPDebate\r\x89\xdb_ http://t.co/AuhlNZa3Ww"
p598
aS'@parkerc2112: #GOPDebate @realDonaldTrump can you imagine this buffoon addressing world leaders?'
p599
aS'@realDonaldTrump did no good 4 himself w GOP primary voters! Just look @FrankLuntz results! @marcorubio Won the #GOPDebate!@FoxNews #out#'
p600
aS'#Trump getting shit for raising his hand last night! Make "America" great again is the slogan! Not "Republicans!" #GOPDebate     #13'
p601
aS"@kuya_joshua: There's gonna be hell toupee if Donald Trump is the nominee. #GOPDebate"
p602
aS'@cassandra17lina Could actually be a democrat trying to help the democrats? #Trump #GOPDebate #Trump2016'
p603
aS'#Out - @krauthammer is correct. Trump was biggest loser in #GOPDebate. @AndreaTantaros &amp; Eric are wrong. Smart women will dump Trump.'
p604
aS'#GOPDebate @realDonaldTrump can you imagine this buffoon addressing world leaders?'
p605
aS"This makes me laugh, it's entertaining. But it doesn't make me want to give my vote to @realDonaldTrump. #GOPDebate  https://t.co/STg5uiBZl5"
p606
aS'Next #GOPDebate #Trump needs to let me do something with that hair!!!!! #fashion'
p607
aS'This prick can call the death of #KateSteinle a "little thing," but Trump can\'t call someone a dog. #GOPDebate #PC https://t.co/YsI1O5TJ4q'
p608
aS'@larryelder: Worse than an unprepared candidate is blind support for one. I was pulling for #DonaldTrump. But he needs to raise his game\x89\xdb_'
p609
aS"@realDonaldTrump childish attacks specifically on @megynkelly you'll never become POTUS. You can mess you a wet dream. #GOPDebate"
p610
aS'The gave Trump twice as much speaking time as Walker #GOPdebate \r#TCOT #LNYHBT'
p611
aS"That's how a @realpresidentialcandidate acts?  That's how a real ADULT acts?  Did @realDonaldTrump get his wittle feewings hurt? #GOPDebate"
p612
aS'When Trump says it its not being PC, if you say it about Trump his lawyer calls you. #hypocrisy #GOPDebate #UniteBlue'
p613
aS"@pattonoswalt: It's simple: Trump doesn't not want to not say he won't pledge not running against the winner if he does or doesn't not w\x89\xdb_"
p614
aS'@hemantmehta: Can we just build a fence around Trump? #GOPDebate'
p615
aS"Trump doesn't answer questions he just shits out a semi coherent sentence with a bunch of charged words thrown in there #GOPDebate"
p616
aS"Contrary to Trump's views, the FOX News debate moderators were on brilliant form last night. #gopdebate"
p617
aS'@MikeJMele: My review of the #GOPDebate \r\r\x89\xdb\xcf(Republican) Party Over Here\x89\xdb\x9d\rhttp://t.co/OpcKHOl3f5\r\r#DonaldTrump #HillaryClinton #Abortion'
p618
aS'Most of the debate was @FoxNews attacking @realDonaldTrump and missing the mark, although it was entertaining #GOPDebate'
p619
aS'They gave Trump almost twice as much speaking time as Cruz at #GOPdebate \r#TCOT #LNYHBT'
p620
aS'Trump knows people are angry and he is playing you like a fool. He has no business in this presidential process #GOPDebate'
p621
aS"@AndreaTantaros @ericbolling I'm with you regarding @realDonaldTrump. Sadly @FoxNews as an establishment is biased.  Blatantly. #GOPDebate"
p622
aS'@FrankLuntz @maxwelltani\rThink anyone failed to note #GOPDebate &amp; your afterparty was to intended to derail Trump? Fair n balanced my ass.'
p623
aS'@ShunStrickland: Not only did @realDonaldTrump justify his comments about women &amp; threaten @megynkelly not one other candidate stood up \x89\xdb_'
p624
aS'9 gifted politicians. One broken party. And Trump. @jbview http://t.co/2pdDvLim2u via @BV #GOPDebate'
p625
aS'@PoliticalShort: The same candidates I support after watching #GOPDebate are the very same  ones @FoxNews showed their hatred for-Trump,\x89\xdb_'
p626
aS"@MattyIceAZ: Donald Trump's points on immigration lack evidence? Like that ever stopped Republicans from believing such claims before.#G\x89\xdb_"
p627
aS"Hey @GOP, #Trump Trump he's your man, if he can't lose it, nobody can!\rWell actually all u showed in #GOPDebate is LOSERS\r#GOP is not legit"
p628
aS"Trump announcing he'd run as an Independent,  being exposed as Democrat, then going off on Megyn Kelly hurts that. #GOPDebate"
p629
aS'@DLoesch: Trump says his ability to buy politicians is \x89\xdb\xcfan example of a broken system.\x89\xdb\x9d #GOPDebate'
p630
aS'@realdonaldtrump should be Donald #stump. He was horrible at the #gopdebate. He talked a lot but said NOTHING.'
p631
aS'GOP insiders: Donald Trump is biggest loser http://t.co/I9ZcQsOkU4 #GOPDebate'
p632
aS"Did @realDonaldTrump really say the moderators of the #GOPDebate weren't professional? #AreYouKiddingMeWithThis"
p633
aS"He's a great business man, but would Donald Trump make a good President? #donaldtrump #trump #gopdebate... http://t.co/tByO1WWvIs"
p634
aS'Do we want a Whiner for POTUS? http://t.co/sFWVH4ky44\r#GOPDebate #TrumpisaWhiner #Election2016'
p635
aS'@markfbonner: You take @realDonaldTrump off the stage and last night\x89\xdb\xaas #GOPDebate is watched by next to no one.'
p636
aS'@jimandrewsmusic: Donald Trump will prove what some have known for years. The presidency can be purchased and democracy is an illusion.\r\x89\xdb_'
p637
aS'@RubinReport: Trump in nutshell: "We can\'t do anything right...vote for me." #GOPDebate'
p638
aS"@RWSurferGirl: Thanks Fox News, you're raising @realDonaldTrump 's ratings. _\xd9\xe0\xbc_\xd9\xe0\xfc #GOPDebate  #GOPDebates"
p639
aS"@MeganSmiles: #GOPDebate Can't count how many times Obama &amp; Hillary 'evolved'. Trump evolving is not a big deal."
p640
aS'@LilAssKickerAMC: Who cares how u wear your hair, I like the excitement u bring back into American blood. @realDonaldTrump  #GOPDebate h\x89\xdb_'
p641
aS'Advertising everywhere sells sex ALL DAY LONG, but Trump can\'t say that a women would "look good on her knees." #GOPDebate #PC #Trump2016'
p642
aS'@GetUpStandUp2: 5 Frighteningly Sexist Donald Trump Quotes http://t.co/cwyUuL8JKn via @bustle #TheDonald #TrumpMisogonist #GOPdebate #Wo\x89\xdb_'
p643
aS"@FrankLuntz My focus group actually likes Donald @realDonaldTrump...  #GOPDebate http://t.co/tiwlOaaOj8 &lt;-- Riding on Trump's coattails!!"
p644
aS"@theonlybacchus: Let's see the #KKKorGOP question stands true for:\r\r#DonaldTrump\r#JebBush\r#LindseyGraham\r#RandPaul\r#MikeHuckabee\r\rA whit\x89\xdb_"
p645
aS"@marksluckie: Raise your hand if you've ever felt personally victimized by Donald Trump #GOPDebate http://t.co/s90v8Yq9jH"
p646
aS'"Has God ever told me anything? That\'d be talking to myself!" #GOPDebate'
p647
aS'@megynkelly  you lost alot of admirers last night.We Republicans are just going to beat ourselves, AGAIN!  #GOPDebate #DonaldTrump'
p648
aS'First question of #GOPDebate of 3rd party run was to give @realDonaldTrump a disadvantage from the start. #UnfairWorld'
p649
aS'@realDonaldTrump wins the polls in the #GOPDebate debate. What does that tell u? #Americans r sick of the same ole politician song &amp; dance.'
p650
aS".@megynkelly someone needs 2 inform @realDonaldTrump that he's picking the wrong #female moderator 2 get mouthy with!\rWell done!\r#GOPDebate"
p651
aS'@maddeclair: In a shocking twist during the debate, Trump brags about how much money he has #GOPDebate'
p652
aS'@HaroldItz: BREAKING EXCLUSIVE PIC Trump meets the press after #GOPDebate http://t.co/3UFQSs2hNX'
p653
aS"@JohnCassidy: Nobody won, and Trump's having fun. My colleague @TNYCloseRead's take on the #GOPDebate http://t.co/EIPqiw2053"
p654
aS'bright spot in all this is that while Hilary might not be enough to galvanize the democratic base, defeating Trump certainly is. #GOPDebate'
p655
aS'@jncatron: The only candidate who stood out in any way was @realDonaldTrump. Even the unhniged lunatics were bland and colorless about i\x89\xdb_'
p656
aS'So disappointed @realDonaldTrump never got to answer the God question! #GOPDebate'
p657
aS'@xqueenzee: Basically #GOPDebate http://t.co/el5jJ9hOeE'
p658
aS'A 5-year-old kid can access a porno of a woman being in a gangbang, but Trump can\'t say a woman would "look good on her knees." #GOPDebate'
p659
aS"Trump personifies money doesnt make you happy.Wealthy &amp; incredibly mean:that meanness doesn't come from a happy person.#GOPDebate #KKKorGOP"
p660
aS'@CJsucitymvp: "but i don\'t wanna eat my vegetables" RT @Lizzs_Lockeroom #GOPDebate http://t.co/N34sUH0qho'
p661
aS'@BrunettePatriot: Do we really want someone like this in office? #GOPDebate #BC2DC16 #Trump http://t.co/Jb53bAGNhn'
p662
aS"#TRUMP is beyond Teflon. He could cut @megynkelly into pieces &amp; feed her to Mike Wallace's disappointment &amp; his #'s would go up. #GOPDebate"
p663
aS"Political correctness... Ain't nobody got time for that! #GOPDebate #Trump"
p664
aS'@JessicaValenti: Trump: I told God to come to my wedding and HE CAME. #GOPDebate'
p665
aS'@cristela9: Trump looks like an Oompa Loompa that made something out of himself... #GOPDebate'
p666
aS"@BiasedGirl: Expose him now. Then he is The Clinton's problem. Not ours. #DumpTrump #GOPDebate #JigIsUp  https://t.co/MM2dVMCQQb"
p667
aS'@CalebHowe: Did Lindsey Graham Just Call Donald Trump One Of The Top Ten Biggest Bastards On The Planet?  http://t.co/IhQSgK3bGX #GOPDeb\x89\xdb_'
p668
aS'@DadusAmericanis: @realDonaldTrump @FrankLuntz \r\r@MegynKelly, @BretBaier and Chris Wallace.\r\rjust need one more Horseman... \r\r#GOPDebate'
p669
aS'Would we be talking abt "political correctness" if @realDonaldTrump was referring to POC instead of women? #GOPDebate #equality'
p670
aS'@ChapmanGOP: But @realDonaldTrump supporters are saying he was treated "unfairly?" Yea... Right. #GOPDebate http://t.co/nJrwoYrrzM'
p671
aS"@JayGeraghty: Who's staying up for the trump show? #GOPDebate"
p672
aS'@PruneJuiceMedia: Donald Trump admits on national TV that he bought candidates in the past. Oh joy. #GOPDebate'
p673
aS'@alexandraheuser: BREAKING: Rick SANTORUM WINS #GOP2016 Straw Poll by WIDE margin 34% to TRUMP 17% Sure seems #FoxNews based debate on b\x89\xdb_'
p674
aS'How long will it take the stupid party to do what Trump does, call out stupid journalists &amp; statist butt kissers w/plain speech? #GOPDebate'
p675
aS'Donald Trump is a very scary man #GOPDebate #GOP'
p676
aS'I am stunned at how unprofessional the @FoxNews moderators were. #GOPDebate What bullshit questions for #Trump. #Thirsty @megynkelly'
p677
aS'Anger Bear stayed up too late and was throwing things around in his bedroom. No video games for him today. #GOPdebate http://t.co/qRAZyJWzEZ'
p678
aS'How would you fix the police problem?\rDonald Trump: What police problem? #GOPDebate'
p679
aS'#FoxNews gives #Trump, er Fox, most speaking time during first debate http://t.co/UzBf58Fg2f via @American_Mirror &amp; @kyleolson4 #GOPDebate'
p680
aS'Do we really want someone like this in office? #GOPDebate #BC2DC16 #Trump http://t.co/Jb53bAGNhn'
p681
aS'@realDonaldTrump "took advantage of chapter laws" the same way welfare fraud is committed. It\'s all just gaming the system. #GOPDebate #2016'
p682
aS'Very disappointed at some of the hostile questions by Fox News, (or was it  MSNBC?) at #GOPDebate, especially those directed at Trump!'
p683
aS'Watching the republican party implode from within is magical. #GOPDebate #donalddump'
p684
aS"@TheSoup: Is it over? How'd Trump's hair do? #GOPDebate"
p685
aS'5 Frighteningly Sexist Donald Trump Quotes http://t.co/cwyUuL8JKn via @bustle #TheDonald #TrumpMisogonist #GOPdebate #Women #Misogyny'
p686
aS'@sarahcpr: In an epic twist of irony, Trump seems to have turned Fox viewers against themselves #GOPDebate'
p687
aS'@MikeSington: #GOPDebate summed up in one pic. http://t.co/D3mEZO1bTJ'
p688
aS'@BoldProgressive: .@realDonaldTrump says he gives his money so people will do what he wants. This is why we need to overturn #CitizensUn\x89\xdb_'
p689
aS'Its hard not to wonder if @realDonaldTrump is #GOP spoiler \r#GOPDebate #copolitics  https://t.co/LGTCNx0dra'
p690
aS'Hating things with impunity is the new combover. #selfquoting #DumpTrump #leaverosieouttathis #GOPDebate'
p691
a.