(lp1
S'@palmaceiahome1: The goal of #FoxNews last night was to take out Trump and pave the way for a RINO like Bush or Kasich. #GOPDebate'
p2
aS'@philstockworld: From our Live Chat Room: #GOPDebate #Trump #Futures $SPY #NonFarmPayrolls #Jobs #Netflix -- http://t.co/0K06Sf81rq http\x89\xdb_'
p3
aS'@Ronnie2K: Donald Trump during #GOPDebate be like... https://t.co/jCUirk1i1u'
p4
aS'I think @realDonaldTrump was caught by surprise by that first question and was never able to recover his equilibrium. #GOPDebate'
p5
aS'@STEEL5757: _\xd9_\xdb #DonaldTrump Plaza Casino #TeddyBear Plush in #Tuxedo _\xd9_\xdb http://t.co/QHTTX0PLDG _\xd9_\xdb #CoolStuff #GOPDebate http://t.co/QJUnzjY\x89\xdb_'
p6
aS'@AC360: It wasn\x89\xdb\xaat all #DonaldTrump. The most memorable #GOPDebate moments right now on #AC360. http://t.co/kDNhGj2RY3 http://t.co/HZ9GwE\x89\xdb_'
p7
aS'#GOPDebate in one picture http://t.co/WMmucJUqJu'
p8
aS"@Writeintrump: Obama better not leave his prayer rug behind in the Oval Office when I get elected because I'll throw it out.   #GOPDebate"
p9
aS'@RedheadAndRight: Meet the new darling of the left \x8b\xdb\xdc Megyn Gotcha Kelly. #GOPDebate @FoxNews #DonaldTrump #MegynKelly'
p10
aS'.@megynkelly  asked .@realDonaldTrump  poor questions, why, was this to help Bush in the polls? #Hannity #GOPDebate https://t.co/p389iIlE2N'
p11
aS'@palmaceiahome1: Rush Limbaugh to Megyn Kelly "I know no Democrat Candidate would be treated the way Megyn Kelly treated Trump." #FoxNew\x89\xdb_'
p12
aS'@_youhadonejob: Donald Trumps hair arrives early for the Republican Party presidential debate. #GOPDebate http://t.co/cQuPKRyBse'
p13
aS'@exjon @EssmailPatricia @CuffyMeh \rTrump supporters threaten to take Nerf ball home after hard hit.\r#GOPDebate #TrumpsPeePeehurts'
p14
aS'@fakedansavage: Kelly: "You call women you don\'t like \'fat pigs,\' \'dogs,\' and \'disgusting animals.\'" Trump: "Only Rosie O\'Donnell." Crow\x89\xdb_'
p15
aS"@Writeintrump: Anyone know why Megan Kelly was so pissed at me during the #GOPDebate? I'm pretty sure I was never married to her."
p16
aS'@Anergo_Teacher: Imagine a #Trump Administration dealing with a US-Russia crisis. \r\rWWIII #GOPDebate'
p17
aS"@ThePatriot143: You Don't have to support Trump to realize that every question was delivered in a Backhanded manner #GOPDebate http://t.\x89\xdb_"
p18
aS'@megynkelly: .@realDonaldTrump: I think the big problem this country has is being politically correct #GOPDebate'
p19
aS'#GOPDebate: Fox News tries to dump the #Trump. http://t.co/MuSxkU53Ol http://t.co/2Ha71jFRp1'
p20
aS'#GOPDebate  The order was to "take out Trump", but I wonder if FOX News was the one who took the "order" seriously. @HeidiL_RN'
p21
aS'@palmaceiahome1: Rush Limbaugh seems to think #FoxNews did a hit job on Trump. #GOPDebate'
p22
aS"Oooh, so Fox News also doesn't want Trump to be president. #GOPDebate"
p23
aS"Finally watched the #GOPDebate, freakin' hilarious. Kelly killed it, and Trump definitely got his showboat. Was there anyone else there?"
p24
aS'@larryelder: Trump SHOULD have said, "If that\'s how you wish to begin, ask these gentlemen will THEY support ME when I win the nominatio\x89\xdb_'
p25
aS'@samugranados: Robert Costa / David Weigel breaking down the #GOPdebate in this neat presentation by @Tan_Shelly  @SethBlanchard http://\x89\xdb_'
p26
aS'@DanScavino: ICYMI: @realDonaldTrump on @Morning_Joe @morningmika discussing #GOPDebate #Trump2016 #MakeAmericaGreatAgain  https://t.co/\x89\xdb_'
p27
aS'@LeticiaEstrada: Did anyone see this last night #gopdebate #trump https://t.co/aU20dYdoWh'
p28
aS"@TheRightScoop well @FrankLuntz focus group certainly doesn't match today's #GOPDebate polls"
p29
aS'@fakedansavage: Trump: "If I\'m the nominee, I will not run as an independent." #GOPDebate'
p30
aS'@WND_TXT: #Trump is a man  who is Substance.A fighter.The Intellectual Class will never be able to understand a hands on person like Tru\x89\xdb_'
p31
aS'Donald Trump Clashes With Megyn Kelly During #GOPDebate  (Video)   https://t.co/k8h5CZrYMW'
p32
aS"@joshtpm #GOPDebate https://t.co/AyxbtXwsKR \x89\xdb_ Money Can't Buy Me Love? Or Can It? -D Trump #Quote"
p33
aS'@realDonaldTrump got "trumped" by @megynkelly #GOPDebate'
p34
aS'I saw @megynkelly reach down and scratch her balls once after she picked about her 10th fight with @realDonaldTrump #GOPDebate #tcot'
p35
aS'@MolonLabe1776us: This is how last night should have looked...\r@megynkelly @BretBaier #GOPDebate #TCOT @realDonaldTrump http://t.co/K2TK\x89\xdb_'
p36
aS"@NumbersMuncher: Donald Trump is the guy who flips the Risk board over once he realizes he can't overtake Asia. #GOPDebate"
p37
aS'@seanhannity: .@realDonaldTrump: \x89\xdb\xcfWe need a leader at the top that\x89\xdb\xaas going to not worry so much about tone, that\x89\xdb\xaas going to get results.\x89\xdb_'
p38
aS'@DanScavino: #GOPDebate Time:\rTrump 11:40\rBush 8:48\rKasich 6:52\rRubio 6:49\rCarson 6:46\rCruz 6:46\rHuckabee 6:42\rChristie 6:24\rWalker 5:45\x89\xdb_'
p39
aS'@LadySandersfarm: Will @megynkelly  Ever Ask Rosie to Apologize for Her Foul, Abusive, Ugly Attacks on Donald #Trump? https://t.co/zxasm\x89\xdb_'
p40
aS'@TrumpIssues: It took the @POTUS 5 DAYS 2 lower the flag 2 honor soldiers killed in #Chattanooga, but Trump better not call a woman slob\x89\xdb_'
p41
aS'@pattonoswalt: "Jesus...good guy. I would\'ve sealed his tomb better. Cheap craftsmanship, a boulder that can just be rolled away." -- Tr\x89\xdb_'
p42
aS'Moment #Megyn Kelly Burns #DonaldTrump "You Called #Women Fat Pigs, Disgusting animals" #USA #GOPDEBATE\rhttps://t.co/VViA1NUyLd via @YouTube'
p43
aS'Chris Wallace wanted Trump and Bush to throw some hands. #GOPDebate #DonaldTrump #JebBush http://t.co/Q3BpYSeSuE'
p44
aS'@WhineNot: Rush: "Big time Republican donors were ordered to take out Donald Trump" #believable #GOPDebate'
p45
aS'@seanhannity: .@realDonaldTrump: Now some of the people you would least expect are calling me up and apologizing. #Hannity #GOPDebate'
p46
aS'#GOPDebate @FoxNews @realDonaldTrump  in 2004 you called a woman a nickel&amp;dime whore. Do you stand by that statement now running for POTUS?'
p47
aS'Rush: "Not one of the 9 other candidates on the stage joined Megan Kelly in going after Donald Trump" #GOPDebate'
p48
aS'"You once told a contestant on Celebrity Apprentice it would be a pretty picture to see her on her knees" \r\rOMFG #GOPdebate'
p49
aS'@MolonLabe1776us: How much did Hillary/ CNN/ and MSNBC pay you to moderate tonight? @megynkelly #GOPDebate @realDonaldTrump #TCOT http:/\x89\xdb_'
p50
aS'@larryelder: How DARE FOX ask #DonaldTrump for proof that "Mexico is sending criminals." Who do they think they are? (sarcasm)\r#GOPDebate'
p51
aS'@LauraSanthanam: Top 3 #GOPDebate times\rTrump 11:06\rBush 8:40\rHuck 6:39\rMORE RESULTS HERE: http://t.co/o06uCZXFF8'
p52
aS"@HuntsmanAbby @SIRIUSXM @PeteDominick @krystalball #GOPDebate  @JonHuntsman https://t.co/AyxbtXwsKR Money Can't Buy Me Love? It Can -D Trump"
p53
aS'Donald Trump &amp; Hillary Clinton deserve each other. I guess if the parties nominate these 2 phonies then America deserves them too #GOPDebate'
p54
aS'@CNNMoney: #GOPDebate recap: @realDonaldTrump vs. @megynkelly. Who won the night? http://t.co/YwdF7hJgdB By @brianstelter http://t.co/Lz\x89\xdb_'
p55
aS"@danpfeiffer: Here's my late night not so hot take on the #GOPdebate. Short version, it's all abt Trump; Rubio good, Bush bad  http://t.\x89\xdb_"
p56
aS'@edwrather: Last night at the debate we had an opportunity to hear the moderators debate Trump...the moderators lost #GOPDebate #Tcot #c\x89\xdb_'
p57
aS'Really, the only people who seem upset with @BretBaier &amp; @megynkelly &amp; FOX are the people who backed Trump. #GOPDebate'
p58
aS'@bkurbs: What are you saying? @realDonaldTrump #GOPDebate http://t.co/mSq6cN6B3s'
p59
aS"\x89\xdb\xf7ONLY ROSIE': Donald Trump Takes a Dig at Rosie O\x89\xdb\xaaDonnell During #GOPDebate\x89\xdb_ the Crowd Roars..... http://t.co/39sqc4VTVc via @regisgiles"
p60
aS"@4BillLewis: .@Rosie O'Donnell Responds to @realDonaldTrump Mid-Debate Insult http://t.co/hvN3G3c9Kq http://t.co/jPpgQi9TBN #GOPDebate #\x89\xdb_"
p61
aS'@PruneJuiceMedia: Fox to Trump: Your financial practices are a shitty mess. How will you differ as POTUS?\r\rTrump: I won\x89\xdb\xaat. Other people \x89\xdb_'
p62
aS'@mVespa1: Donald Trump Refuses to Rule Out Third Party Run on GOP Debate Stage  http://t.co/i4YywfLSy2 #tcot #GOPdebate'
p63
aS"@Writeintrump: #GOPDebate After Party Update: I'm still waiting for Ben Carson to introduce me to those twins he bragged about.  I hope \x89\xdb_"
p64
aS"@AnjDelgado: Check out how @washingtonpost used @Genius to annotate last night's #GOPDebate http://t.co/f3GU92M8PL @wendygreen_ @traveli\x89\xdb_"
p65
aS'Watch the #GOPDebate last nite? Well than you are ready for #trump this: the United States of #mexchat this Monday Aug10. 1pm ET'
p66
aS'@jangelgonzalo: The GOP debate, charted word by word http://t.co/utUowZIvj6 #GOPDebate'
p67
aS"@ChrisShurley: @OutnumberedFNC #charleskrauthammer is a #fossil who just loves #MegynKelly. He's out of his mind on @realDonaldTrump fro\x89\xdb_"
p68
aS'@ARTEM_KLYUSHIN: .@realDonaldTrump just posted this video of him arriving to the #GOPdebate\rhttps://t.co/kmtareY88s'
p69
aS'#GOPdebate: So now what do you think of Donald J. Trump?  He had the most minutes of any candidate. Did he change... http://t.co/1qpscJVIku'
p70
aS'@ARTEM_KLYUSHIN: Trump family prior to getting off plane in Cleveland, Ohio. #GOPDebate \r#MakeAmericaGreatAgain  \r#Trump2016_\xd9\xe0\xbc_\xd9\xe0\xfc http://t.\x89\xdb_'
p71
aS'@DUhockeyFan: Please raise your hand if Bill Clinton asked you to run for President! #GOPDebate #Trump http://t.co/eoVl8KL0FR'
p72
aS'@Hardline_Stance: Megyn Kelly got the most air time. 31% of it was for Fox #GOPdebate moderators. Trump was 2nd closest, contrary to wha\x89\xdb_'
p73
aS'@DamienFahey: You can really tell Donald Trump is pro-life because he refers to a child as \x89\xdb\xcfit\x89\xdb\x9d. #GOPDebate'
p74
aS'@jacksontsimpson: TRUMP: "Most of the people on this stage I have given to."\rRUBIO: "Not me."\r#SHADE #GOPDebate'
p75
aS"@dbeltwrites: Donald Trump's hair looks like it's permanently being blurred out by the TV censors. #GopDebate"
p76
aS"@ChadFromStL: .@realDonaldTrump should answer @jdharm's hard-hitting question from last night's #GOPDebate @sternshow @HowardStern http:\x89\xdb_"
p77
aS'#GOPDebate takeaway. Donald Trump exposed as Donald Trump.'
p78
aS'Trump Capitalizes on Opportunities to Speak. Trump got most time; Paul got least. #GOPDebate \rhttp://t.co/r1ecwvfKTO http://t.co/HrCkyXvtR2'
p79
aS'@jjauthor: @realDonaldTrump floats like a butterfly and stings like a bee! @BeladonnaRogers @megynkelly #GOPDebate'
p80
aS"@hrkbenowen Tuned in to learn more about the other guys not named Trump and it turned into Megyn Kelly's Peoples Court #GOPDebate #Cruz2016"
p81
aS".@JDiamond1 finds strengths for #Trump #Paul &amp; #Christie but wonders about #Bush &amp; #Walker in last night's #GOPDebate http://t.co/CM8uowwG4S"
p82
aS'Wow, the endless fake pearl-clutching by establishment Repubs at everything #BasedTrump says now at fever pitch. #cuckservative #GOPDebate'
p83
aS'@DanScavino: "EXCUSE ME! THIS COUNTRY OWES $19 TRILLION DOLLARS &amp; THEY NEED SOMEONE LIKE ME TO STRAIGHTEN IT OUT!" @realDonaldTrump #GOP\x89\xdb_'
p84
aS'#DonaldTrumpforPresident #GOPDebate The morning after http://t.co/tp1xQGbPbh'
p85
aS'@carterintampa: Trump post-debate media gaggle. #GOPDebate @MyFoxTampaBay @Fox13Politics http://t.co/kb2ySJhXon'
p86
aS'Gee. Do ya think it\'s because, you know, The Donald?\r\r"Last night\'s #GOPdebate was the most watched Fox News... http://t.co/0Dln7370gQ'
p87
aS'@rikardorichards: #DonaldTrump and #JebBush clash over their respective plans for the #MiddleEast #GOPDebate http://t.co/zc1793pjGz'
p88
aS'Funny how hypocritical @93wibc hosts are when discussing Trump vague answers vs ALL GOP candidates doing the same every debate.  #GOPDebate'
p89
aS'@MentalityMag: Top 5 candidates by searches on Google were Donald Trump, Ben Carson, Ted Cruz,l Jeb Bush and Marco Rubio. #GOPDebate htt\x89\xdb_'
p90
aS"#GOPDebate: Fiorina Blasts Trump's Clinton Ties: 'I Didn't Get A Phone Call From Bill' |  http://t.co/UctIhxDwSz"
p91
aS'@dynamodreams: @realDonaldTrump @megynkelly  Megyn Kelly will also be rolling her eyes as she watches her ratings drop drastically. #GOP\x89\xdb_'
p92
aS'@pacsgirl36: @rushlimbaugh yep @megynkelly sucked at #GOPDebate  @realDonaldTrump  country is in a mess &amp; debate questions Terrible'
p93
aS'@AmyMek: "When you have people that are cutting Christian\'s heads off, we don\'t have time for tone -&gt; We need action!" @realDonaldTrump \x89\xdb_'
p94
aS"ICYMI: Donald Trump says SU alumna Megyn Kelly 'behaved very nasty to me' at #GOPDebate http://t.co/krFkt4kHz5"
p95
aS'Megyn Kelly got the most air time. 31% of it was for Fox #GOPdebate moderators. Trump was 2nd closest, contrary to what folks think...--Rush'
p96
aS'@realDonaldTrump any thoughts on this claim? #GOP #GOPDebate #politics  https://t.co/YTrZ6QVhod'
p97
aS'@pattonoswalt: "Yeah, I was pro-abortion. But that was the scene at Limelight in the 80s. It was a different time." -- Donald Trump #GOP\x89\xdb_'
p98
aS".@mattyglesias on the @realDonaldTrump and last night's #GOPDebate http://t.co/qvFMafvgu0 h/t @zmcdade http://t.co/qM3jG1Y07q"
p99
aS'@RoniSeale: @DanScavino @realDonaldTrump is being honest and not backing down. #TrumpIsRight #Trump2016  #GOPDebate'
p100
aS'@hughhewitt was right when declared on @AdamCarollaShow that Hillary WILL be the next POTUS. Thx to #Trump2016 for confirming @ #GOPDebate'
p101
aS'@pattonoswalt: Dear @IsiahWhitlockJr: Can you confirm that Donald Trump just "Clay Davis\'d" this debate? #sheeeeeeeeeeeit #GOPDebate'
p102
aS'Best part of the #GOPDebate is @FoxNews Viewers having to choose between @MegynKelly or @RealDonaldTrump  @ToddStarnes &amp;  @GovWalker'
p103
aS"here's why I am voting for donald trump for president of america the country https://t.co/o1TXsYF9x5 #GOPDebate http://t.co/ZHvXuhuBmX"
p104
aS'@realDonaldTrump has never given me money either but I would take it..I would be stupid not to #GOPDebate #p2 #tcot'
p105
aS'@DickMorrisTweet: Who Won The Debate? Dick Morris TV: Lunch Alert! http://t.co/4XvN7N5lv1 #GOPDebate #Election2016 @realDonaldTrump @ted\x89\xdb_'
p106
aS'Oh they are real and even have the same hair, sorta.  They are all @realDonaldTrump \r#GOPDebate  https://t.co/mTQdsDGPEb'
p107
aS"Trump whines about tough questions; 'Megyn behaved very nasty to me' http://t.co/jylEVqSzRr #GOPDebate #Election2016"
p108
aS'@DaciaLJohnson: So, who do you think won the #GOPDebate? So far @TCPalm polls shows @realDonaldTrump at 50%: http://t.co/4atgYTWh8T http\x89\xdb_'
p109
aS'Donald #Trump visited the border. John #Kasich attended a gay wedding. Q: Which man is braver? #GOPDebate #LowBar'
p110
aS'Check it out!\r\rhttps://t.co/36CvqAYkjo\r\rhttps://t.co/qetdTD8hCz\r\rhttps://t.co/m3B39R61y8\r\r@realDonaldTrump\r#GOPDebate http://t.co/EY2marGcQo'
p111
aS"vicenews: Here's what happened at last night's #GOPDebate. Yes, realDonaldTrump was there: http://t.co/5Sgveo7r8n http://t.co/ASdsfke513"
p112
aS"ABC's @WNTonight Ignores 5 p.m. #GOPDebate, @CBSEveningNews Omits @CarlyFiorina's Line on Trump http://t.co/D0F07gyeT4"
p113
aS'captain_landon: Preview of Donald Trump tonight at the #GOPDebate (Vine by CaseyBake16) https://t.co/dilFAHWpSz http://t.co/AuhlNZa3Ww'
p114
aS'@13_band: #Trump out for blood at #GOPdebate.  Entertaining fight _\xd9\xf7\xe2 lol http://t.co/sdocEkueBL'
p115
aS'It looks like most reaction to Donald Trump was "YOU CAN\'T SAY THAT (he\'s right but) YOU CAN\'T SAY THAT!" #GOPDebate'
p116
aS'Preview of Donald Trump tonight at the #GOPDebate (Vine by @CaseyBake16) https://t.co/aWLgcPKqgL'
p117
aS'Rush: "Trump was reactive. Played by the rules. Trump was still Trump." #GOPDebate #tcot'
p118
aS'Incredibly important points. #GOPDebate #Trump #presidentialdebate  https://t.co/kXIb7LvlTw'
p119
aS"Following last night's #GOPDebate @SarahPalinUSA stated that she could hear Putin crapping form her house!\r\r @realDonaldTrump @greggutfeld"
p120
aS'Did Donald Trump\x89\xdb\xaas performance at the first #GOPdebate help or hurt him? http://t.co/ydtIRIdU7H http://t.co/AnDsOm9DMb'
p121
aS'@LynnParramore: MT @PolitiFact: Yep, Clintons attended Trump\x89\xdb\xaas wedding in 2005. Front row seats. http://t.co/YNp8kzIBHJ #GOPDebate http:\x89\xdb_'
p122
aS'Record numbers for the #GOPDebate. Everyone tuned in to see if @realDonaldTrump would curse or something. LOL'
p123
aS'@FMJAmerican: I am seeking solace on @AnnCoulter and @seanhannity Twitter pages. Thanks for the #Truth #GOPDebate @realDonaldTrump https\x89\xdb_'
p124
aS'@usweekly: Celebs react to the #GOPdebate: http://t.co/AcfuPbfUlC http://t.co/hNgi4avB6x'
p125
aS"Did yesterday's #GOPdebate(s) change your mind? Who impressed you? Who disappointed you? Did Donald Trump help himself? Who's your pick now?"
p126
aS'@mitchellreports You do realize you are only talking about @realDonaldTrump all show, just look at the polls for your answer. #GOPDebate'
p127
aS'#GOPDebate Donald Trump hates Mexicans? http://t.co/M82sZMxKhI'
p128
aS'@realDonaldTrump: We don\x89\xdb\xaat have time for tone. We have to go out and get the job done. #GOPDebate'
p129
aS'Sucking his thumb after the #GOPDebate, @realDonaldTrump said, "The questions to me were not nice." #GetOverIt http://t.co/s4c82i0niS'
p130
aS'Awepra_com: Trump says men wear Trump https://t.co/s9KhGsPVLe #GOPDebate #Trump #Trump2016 #DonaldTrump #Trumpdat\x89\xdb_ http://t.co/AuhlNZa3Ww'
p131
aS'@politicoroger: Trump: "Reporters are a generally dishonest lot." #GOPDebate'
p132
aS'tillerylakelady: RT realDonaldTrump: "stinger_inc: realDonaldTrump  megynkelly\'s behaviour at the #GOPDebate was a\x89\xdb_ http://t.co/AuhlNZa3Ww'
p133
aS'@ShannonBullins1: @cassandra17lina Could actually be a democrat trying to help the democrats? #Trump #GOPDebate #Trump2016'
p134
aS'@SabrinaSiddiqui: \x89\xdb\xcfI said be at my wedding, and she came to my wedding,\x89\xdb\x9d Donald Trump says of Hillary Clinton. #GOPDebate'
p135
aS'#GOPDebate Hillary Clinton or Donald Trump!!!! GO!'
p136
aS"@_HankRearden: Some GOP candidates say we need a 'new America,' but in reality we just need the old one back. #GOPDebate  #Trump2016 htt\x89\xdb_"
p137
aS'Well #FoxNews &amp; #MegynKelly, the @realDonaldTrump hitjob blew up. Tops @Time poll #KellyFile #GOPDebate #DonaldTrump http://t.co/PhQU2mpmbG'
p138
aS'@MikeJMele: Review of the #GOPDebate \r\r\x89\xdb\xcf(Republican) Party Over Here\x89\xdb\x9d\rhttp://t.co/OpcKHOl3f5\r\r#DonaldTrump #HillaryClinton #Abortion'
p139
aS'#DonaldTrump responds to @FoxNews moderators. #GOPDebate  https://t.co/uNpWf1GmAW'
p140
aS"I just heard Megyn Kelly's question to Trump! His comeback w Rosie O'Donnell was appalling but predictable! #GopDebate"
p141
aS'@larryelder: When\'s the last time you heard someone praise "single payer" like Trump did last night? Oh, now I recall:\rhttp://t.co/IAmJu\x89\xdb_'
p142
aS'So Trump uses the GOP stage as he wants but reserves the right to destroy GOP chances in 2016 at any time? Great GOP leadership. #GOPDebate'
p143
aS'Did Donald Trump\x89\xdb\xaas performance at the first #GOPdebate help or hurt him? http://t.co/hlUf1Iu3Qp http://t.co/DcSS6KwQne'
p144
aS'@RWSurferGirl: Trump only got ask 5 questions most were attacks. This is his first debate and he got his feet wet and he still leading. \x89\xdb_'
p145
aS'@BiasedGirl: "Donald Trump is not a conservative." ~@AndrewBreitbart \r#DumpTrump #GOPDebate #JigisUp'
p146
aS'#GOPDebate Winners: #Trump, #Kasich, #Rubio. Losers: #Bush, #Carson, #Cruz | http://t.co/qS4o70ZXBy | http://t.co/JM1zvd5qyd'
p147
aS'@DanWantsFreedom: Trump Wins @DRUDGE Report #GOPDebate Poll.\r#TedCruz finished 2nd.\r http://t.co/LxexPfyI4V #Newsmax via @Newsmax_Media\r\x89\xdb_'
p148
aS'@happydreams22: msnbc: .realDonaldTrump reacts to #GOPDebate: "I\'m not sure that Fox is fair" http://t.co/m79lMHSC7H'
p149
aS'@realDonaldTrump don\'t worry about @megynkelly She was only person on stage "hearing voices"-her ego talking! #GOPDebate @jimlibertarian'
p150
aS'@mterry337: #GopDebate It really looks like FOX is going after #DonaldTrump!!!'
p151
aS'@Mivasair @michelleruiz  "never give up your leverage before the negotiation starts" - Donald #Trump 2015\r#GOPDebate \r#TrumpForPresident'
p152
aS'@maddeclair: "When did you become a Republican, Mr. Trump?" #GOPDebate #megynkellydebatequestions'
p153
aS'@ngomsiv: Donald Trump on the border last week #GOPDebate http://t.co/6UUIbRW06t'
p154
aS'@AC360: I think the biggest problem this country has is being totally politically correct - @realDonaldTrump in #GOPDebate http://t.co/H\x89\xdb_'
p155
aS"Watching last night's #GOPDebate it's clear that #DonaldTrump is the Id of the Republican party."
p156
aS'Drudge poll now shows 45% say @realDonaldTrump won debate. @Tedcruz comes in second with 14%. #GOPDebate http://t.co/JKSCHFji9E'
p157
aS"@realDonaldTrump won debate despite hatchet job @megynkelly MK's unprofessional questions brought #GOPDebate quality down n 2 dirt,literally"
p158
aS'MAN THIS CAUGHT ME OFF GUARD _\xd9\xf7\xe2_\xd9\xf7\xe2_\xd9\xf7\xe2_\xd9\xf7\xe2_\xd9\xf7\xe2_\xd9\xf7\xe2_\xd9\xf7\xe2 #gopdebate  #Thedonald  #Donaldtrump https://t.co/6VF7CjqbOD'
p159
aS'@kaylirw: "I would, like, definitely do stuff different, like whatever is happening I make it be not happening"--Trump #GOPDebate'
p160
aS"@FreedomTexasMom: I'd say #Trump #Cruz #Carson. #GOPDebate  https://t.co/johkjZLjQR"
p161
aS'FloridaMEP: RT IMPOmag: #Manufacturing Group Knocks Trump Ahead Of #GOPDebate http://t.co/f3Kh6lVjjn #DonaldTrump http://t.co/XY3tBz78dd'
p162
aS'Donald Trump: Border ethnographer.\r"But I went there and that\'s what people told me!!!"\r\r#GOPDebate #RogueSociologist'
p163
aS'@HellerJake: Rap Genius goes mainstream. Cool collaboration by the @washingtonpost to annotate #GOPDebate http://t.co/xPqLgzOXQB ht @cor\x89\xdb_'
p164
aS"@TruthTeamOne: #GOPDebate Unplanned GOP parenthood ... You're going to have a Trump. http://t.co/6RZMowRG8u"
p165
aS'@M_Cornell: . @realDonaldTrump How do you intend to increase minor league hockey salaries? #AskingForAFriend #GOPDebate'
p166
aS"@bgittleson: Check out @rickklein's take on how the #GOPDebate revealed divisions deeper than Donald Trump: http://t.co/ZV7wlLp9Fc"
p167
aS'@FreedomJames7: If Trump Runs As A Independent, Clinton Is President.\r#GOPDebate http://t.co/1CwHHAfg3z'
p168
aS"@WeOfThePeopleR1 @seanhannity @AnnCoulter @realDonaldTrump Exactly WHY TRUMP WON!! Your.. Biased Media Hack Job didn't work.. #GOPDebate"
p169
aS'It might be the Fear Toxin talking, but my internal voice wonders what a Trump presidency would be like. #GOPDebate http://t.co/eAlQ1ylv7Y'
p170
aS'@ItsShoBoy: #GOPDebate veers between two subjects: #America and @realDonaldTrump http://t.co/iNAXyK7rOm #TNTweeters #AINF #tlot #tcot #p\x89\xdb_'
p171
aS'@Things4WhitePpl: Watching the #GOPDebate just to see what Trump will say'
p172
aS"Last night's #GOPDebate on @FoxNews outdrew the Women's World Cup finals. #TheTrumpFactor\rhttp://t.co/mXUqd2990J"
p173
aS'@Anomaly100: Donald Trump: Megyn Kelly Is A Bimbo For Asking Me About My Misogynistic Comments http://t.co/PsEZgVLdfr #GOPDebate http://\x89\xdb_'
p174
aS'Actual picture of trump at the #GOPDebate last night. #parksaandrec http://t.co/7OGgAP9ear'
p175
aS'@CaroMT: Trump may have fancy hotels. But Cruz has God on speed dial. Never forget this. #GOPDebate'
p176
aS'@LouisOrtiz92: .@realDonaldTrump Makes His Mark During 1st #GOPDebate. His moments right here: http://t.co/gcXaL2E3iq via @NBCNews'
p177
aS'A Trump at the Roxbury: https://t.co/bMUjvo7u83 #TrumpAtTheRoxbury #GOPDebate #SNL #DonaldTrump'
p178
aS'@RepublicanRI: Noticing most of the stories and social media regarding the #GOPDebate last night is about @realDonaldTrump.'
p179
aS"@hotairblog @realDonaldTrump is the modern day Herbert Hoover and we'll pass! Thanks, The Silent Majority! #GOPDebate #gop #tcot"
p180
aS'I am in no way stumping for @realDonaldTrump, but I do find it interesting that both the left &amp; the right are bashing him hard. #GOPDebate'
p181
aS"@AG_Conservative: Crowd boos as Trump, Hillary's stalking horse, is the only one to refuse to pledge to support the Republican nominee. \x89\xdb_"
p182
aS'@germanirishlass: I think everyone that is bashing @therealdonaldtrump is scared to death of bold honest unapologetic truths.  #GOPDebate'
p183
aS"SMH. Trump's Twitter tirade: Megyn Kelly a 'bimbo,' Frank Luntz a 'clown' #gopdebate http://t.co/wyWLcGtcZR"
p184
aS"Republican presidential debate: How Donald Trump's performance may stall campaign   http://t.co/slCaguepIS #US #USA #USpoli #GOP #GOPdebate"
p185
aS'My focus group actually likes Donald Trump as a person and a businessman\x89\xdb_ But not as a candidate.  #GOPDebate\r\rhttp://t.co/Gn6vDezXtx'
p186
aS'@foxnewspolitics: .@realDonaldTrump says @HillaryClinton attended his wedding after donation #GOPDebate  http://t.co/AgSZ8YYpT5'
p187
aS'@RealJamesWoods I loved it! In your face people trying to get @realDonaldTrump to conform!!! @BretBaier @SpecialReport #GOPDebate'
p188
aS"'The Donald' Trumps #GOPDebate rivals.Will millenials 'friend' a celebrity post current revolutionary? #tcot http://t.co/VeYck9QRiF via @AOL"
p189
aS"Clearly #GOPDebate format needs to change. Moderators vs Trump &amp; cheerleading for Jeb isn't productive &amp; robs other candidates of time."
p190
aS".@FoxNews &amp; @GOP did their best to unravel @realDonaldTrump's candidacy...but Trump woke up like.... #GOPDebate http://t.co/e10ugkskWM"
p191
aS'@megynkelly: .@realDonaldTrump:  We don\x89\xdb\xaat have time for tone.  We have to go out and get the job done.  #GOPDebate'
p192
aS'@megynkelly Candy Crowley railroading job on Trump. Used to hold u in high esteem. #GOPDebate #MegynKellyDebateQuestions @realDonaldTrump'
p193
aS'@hiphughes: Trump had a very similar response to my students when asked to provide  citations. "Well I talked to some people &amp; they said\x89\xdb_'
p194
aS'"Only Rosie O\'Donnell..." - Donald Trump #GOPDebate'
p195
aS'17 candidates, 2 debates, 1 Donald Trump and plenty to fact-check http://t.co/4n6wgnunHN #tcot #p2 #GOPClownCar #GOPDebate #KidsTableDebate'
p196
aS'@AC360: #Trump took on opponents in #GOPDebate. This is how he took on celeb opponents in public feuds http://t.co/3fPXjvf7w9 http://t.c\x89\xdb_'
p197
aS'So @FoxNews is breaking up with @realDonaldTrump, still a better love story than #Twilight #GOPClownCar #GOPDebate http://t.co/AtH06nRSe1'
p198
aS'Last night after #GOPDebate  news commentators were saying trump struggled-now I see headlines like "trump dominates debate"-What happened?'
p199
aS'Will @megynkelly Ever Ask @Rosie to Apologize for Her Foul, Abusive, Ugly Attacks on @realDonaldTrump? http://t.co/zyCg0ixWrU #GOPdebate'
p200
aS'@TheBaxterBean: Funny how Donald Trump never mentions Ted Cruz\x89\xdb\xaas Canadian birth certificate. #GOPDebate http://t.co/6WLp6Q0noM http://t.\x89\xdb_'
p201
aS'@jefftiedrich: If Donald Trump showed up at the next #GOPDebate in full Kiss makeup and costume, I might actually have to switch to the \x89\xdb_'
p202
aS'@OldRowOfficial: Who do you really want leading the country? #GOPDebate http://t.co/fA9w5lHars'
p203
aS'.@realDonaldTrump Makes His Mark During 1st #GOPDebate. His moments right here: http://t.co/gcXaL2E3iq via @NBCNews'
p204
aS"@paulapoundstone: #GOPDebate Trump just said he gave money to Hilary Clinton, and then he demanded she come to his wedding. I couldn't w\x89\xdb_"
p205
aS'@IDG375: 17 candidates, 2 debates, 1 Donald Trump and plenty to fact-check http://t.co/QFedZq4q5z via @PolitiFact #GOPFAIL #GOPDEBATE'
p206
aS'Did anyone see this last night #gopdebate #trump https://t.co/aU20dYdoWh'
p207
aS"@oliviabcarter: there's one thing about it, Donald Trump is bringing attention to the Republican Party that is needed #GOPDebate"
p208
aS'Lmao, who did this. #GOPDebate @realDonaldTrump #presidentialdebate  https://t.co/fmkGUBK2Bb'
p209
aS'@RWSurferGirl: Why should @realDonaldTrump pledge support to the GOP when the establishment sold out to Obama? #GOPDebate  #GOPDebates _\xd9\xe0\xbc_\xd9\xe0\xfc'
p210
aS'Huffington Post on Instagram: \x89\xdb\xcfDid anyone else notice this at the #GOPdebate last night? #Trump\x89\xdb\x9d http://t.co/S7uTOx2lvF'
p211
aS'Donald Trump On The Issues http://t.co/kZtZtudxPV \r"Every Political Leader on Every  Issue" #GOPDebate #2016'
p212
aS'They should have asked trump if god has said anything to him #GOPDebate'
p213
aS'Orange is the new... President? :-) #DonaldTrump #GOPDebate #dkpol http://t.co/GK9XKtw1DB'
p214
aS'@marksluckie: Donald Trump late-night angry-tweets Megyn Kelly:  http://t.co/oQaO3th0IM #GOPDebate http://t.co/pIRCINLByl'
p215
aS'@KatiePavlich: Donald Trump refuses to rule out third party run http://t.co/epZQDetjv2 #GOPdebate'
p216
aS'@megynkelly @realDonaldTrump could have it handled better, but he was the only one questioned, read: attacked, at personal level.#GOPDebate'
p217
aS'#GOPDebate: @RealDonaldTrump Faces Off Against @MegynKelly http://t.co/XXIdjLJ355 #tcot via @RachBlevins @BenSwann_'
p218
aS'Reading #GOPDebate coverage and wondering if I watched something different.  The biggest attacks on @realDonaldTrump coming from the Right.'
p219
aS'\x89\xdb\xcf@megynkelly: Crazy day, fun night, exhausting week. This is moments before the #GOPDebate - megn @trump like ...got u'
p220
aS'Trump Twitter Rant: \x89\xdb\xf7Megyn Kelly Bombed Tonight\x89\xdb\xaa\r\rhttp://t.co/SbpiWOM0JJ #GOPDebate #tcot #RedNationRising #uniteblue #pjnet #gop #tgdn #p2'
p221
aS'#GOPDebate w/o moderation: @realDonaldTrump shapes @GOP policy and debate http://t.co/7MbjN53Vut #TNTweeters #AINF #tlot #tcot #p2 #Latism'
p222
aS'@PresHarryTruman: #GOPDebate Roundup: Trump ranted, Carson was eventually allowed to speak, Bush said stuff, Kasich had sense and theref\x89\xdb_'
p223
aS'@LizMair: WE NEED BRAIN. https://t.co/U77g7OpuKY #trumpisms #GOPDebate'
p224
aS"@PatrickSvitek: Perry adviser Rob Johnson: Trump has spent 14 years saying you're fired and Perry has spent 14 years saying you're hired\x89\xdb_"
p225
aS'@LindaSuhler: Drudge Report has Trump running away with the debate at &gt;39%.\rCruz is #2, at almost 14%.\r#GOPDebate'
p226
aS"Trump's entire #GOPDebate performance: Don't hate the player. The rules are made for me, and I love it."
p227
aS'The real winner in @FoxNews #GOPDebate is @oreillyfactor\x89\xdb_ when @megynkelly #KellyFile viewership tanks.  @realDonaldTrump'
p228
aS'@MoiraMMerani: After the #GOPDebate last nite Im between @realDonaldTrump &amp; @marcorubio  #Decision2016 #Election2016 #BestCandidate #Mak\x89\xdb_'
p229
aS'"That\'s a broken system (that I have only ever benefitted from and still think is awesome)!" @realDonaldTrump #GOPDebate'
p230
aS'@TPM: In press release, Donald Trump crowns self winner of #GOPDebate. Unsurprisingly. http://t.co/kQCbcKBjkI http://t.co/c6QMAgEvF3'
p231
aS'@SBSwenson: The truth will set us free! Donald Trump made one shockingly insightful comment re money #GOPdebate http://t.co/sb4JrvrvmU v\x89\xdb_'
p232
aS"If the Clintons sat front row at Trump's wedding, did he score an invite to Chelsea's? #GOPDebate"
p233
aS'MT @YahooPolitics Trump on his "stupid" rivals, and other highs and lows of the #GOPDebate from @mattbai: http://t.co/MylC6Y51u6'
p234
aS'Donald Trump disses Megyn Kelly: \x89\xdb\xf7She\x89\xdb\xaas a cxnt\x89\xdb\xaa http://t.co/VSaQbTKxgK #GOPDebate #DonaldTrump #MegynKelly #Republicandebate #fox news'
p235
aS'Top candidates discussed during #GOPDebate on Facebook:\r1. DonaldTrump\r2. Ben CarsonCarson\r3. Rand Paulul\r4. Mike Huckabee\r5. Chris Christie'
p236
aS'@paulbibeau @LOLGOP  "never give up your leverage before the negotiation starts" - Donald #Trump 2015\r#GOPDebate \r#TrumpForPresident'
p237
aS"#GOPDebate \rIt's not just what #Trump said, but what others said about what he said.\rDaniel Drezner v David Frum http://t.co/hjsmeZcPni"
p238
aS'@realDonaldTrump should see this #gopdebate #FoxDebate @foxnewspolitics  https://t.co/PSN0asmewp'
p239
aS'Photo: What did you think of the #gopdebate #donaldtrump #pleasefollowback #follow @TagsForLikes #follow me... http://t.co/toDpcTJjBF'
p240
aS'Watch Party for the Trump debate at the State Democratic headquarters last night. What a great show! #GOPDebate http://t.co/2h47TKg2Lk'
p241
aS'GOP Debate News - Trump Shocks GOP Faithful http://t.co/FcdtvMR4k9  #DonaldTrump  #GOPDebate http://t.co/vEYi4rWLQ2'
p242
aS'@NHGOP You built this. #NHpolitics #GOPDebate #VoteBlue2016 https://t.co/gfL7IHpZKF'
p243
aS'Billionaire Donald Trump\r\rWas Not Made by MSM\rand \rCannot Be Taken Down by MSM - Rush Limbaugh Quote\r\r#GopDebate https://t.co/UkNljPkwwf'
p244
aS'GOP Debate News - Trump Shocks GOP Faithful - http://t.co/X9otKzlY5O -#GOPDebate #DonaldTrump http://t.co/3EwF8WO8Cq'
p245
aS'GOP Debate News - Trump Shocks GOP Faithful - http://t.co/P8qaU5oVOW -#GOPDebate #DonaldTrump http://t.co/dG6VjjVbev'
p246
aS'GOP Debate News - Trump Shocks GOP Faithful - http://t.co/iHtVa9RV9y -#GOPDebate #DonaldTrump http://t.co/PiyGOzGenz'
p247
aS'Summary of @realDonaldTrump at #GOPDebate \x89\xdb\xcfI\x89\xdb\xaam the best and #America is the worst\x89\xdb\x9d http://t.co/dgNzp2LPgr #TNTweeters #AINF #tlot #tcot #p2'
p248
aS'GOP Debate News - Trump Shocks GOP Faithful http://t.co/FIU8XExfZH  #DonaldTrump  #GOPDebate http://t.co/D5SeyjNd7W'
p249
aS'@nhdogmom: GOP establishment might not like Trump, but the base they nurtured surely do. #GOPBuiltThat #NHPolitics #GOPDebate  https://t\x89\xdb_'
p250
aS'Issue isnt guy w 16 followers. Issue is Trump agreed w it enough to RT.\r#GOPDebate  https://t.co/RrLlLVATET'
p251
aS"@rabiasquared: Are you there God? It's me, #Trump's hair #GOPDebate"
p252
aS'@PolitixGal @garthkirkwood "never give up your leverage before the negotiation starts" - Donald #Trump 2015\r#GOPDebate \r#TrumpForPresident'
p253
aS'http://t.co/7A6fwkAm8K I for one will watch something else at 9pm. They should move #hannity back to that spot #gopdebate'
p254
aS"RM's Rick Vatz says @realDonaldTrump got snookered by @billclinton: http://t.co/yEtxHn47xO #mdpolitics #GOPDebate"
p255
aS'https://t.co/pp6uzVFqQl #DonaldTrump "I\'ve given him plenty of money" #TrumpWon #GOPDebate'
p256
aS'A little history from yours truly re: immigration sparring in #GOPDebate  https://t.co/m59gDl3ZGt'
p257
aS'@emblezes: #Trump on ISIS "We don\'t have time for tone. We have to go out and get the job done !" #GOPDebate'
p258
aS'#GOPDebate #Republicandebate presidential primary debate poll TIME Mag #DonaldTrump Again..http://t.co/dTPelQIsUR http://t.co/NaG44rmM51'
p259
aS'@realDonaldTrump Written the day before the #GOPDebate'
p260
aS'@johncardillo: To put it in perspective, previous GOP primary debates pulled a 5 share. Trump on his own pulled double that. #GOPDebate'
p261
aS'#Trump on ISIS "We don\'t have time for tone. We have to go out and get the job done !" #GOPDebate'
p262
aS'Most fun video from @HuffingtonPost re @realDonaldTrump at #GOPDebate Keep driving the #GOPClownCar down the road https://t.co/pL0VFy0HzB'
p263
aS'Donald Trump (@realDonaldTrump) is like the J.R. Ewing of politics! #GOPDebate'
p264
aS'@Redeem_Culture: POLL @DRUDGE_REPORT: 40% say @realDonaldTrump won the #GOPDebate: http://t.co/tLjgSEamuL http://t.co/UzijuAsmZs'
p265
aS'LBH,@megynkelly came into the debate with a chip on her shoulder where @realDonaldTrump was concerned.#SorryNotSorry #GOPDebate #BeImpartial'
p266
aS'@SmartPolitics: Equal distribution of candidate speaking time (6:52) only reached by Trump &amp; Bush #GOPDebate http://t.co/ZNSQlB4ow2 http\x89\xdb_'
p267
aS'.@realDonaldTrump caused quite a stir last night at the #GOPDebate http://t.co/Cw97OcUCUt http://t.co/B1f9KJT99z'
p268
aS'WSJ: Did Donald Trump\x89\xdb\xaas performance at the first #GOPdebate help or hurt him? http://t.co/ldoO17buIp http://t.co/onmX03TzfD'
p269
aS'@TXCrude: Retweeted Wayne Dupree (@WayneDupreeShow):\r\rDisagree all you want\r\r#GOPDebate was hit job on @realDonaldTrump and... http://t.\x89\xdb_'
p270
aS'"Do you think @realDonaldTrump is a clown?" "I fixed the economy!" @JebBush #GOPDebate'
p271
aS"First debate's search interest: @CarlyFiorina vs. @realDonaldTrump #gopdebate http://t.co/FuF97ox5cy"
p272
aS"Why do I seem to be the only one that doesn't think Trump did well in the #GOPDebates ? I think the questions were fair and relevant. #tcot"
p273
aS'@ericstonestreet: Trump has Cam hands. #GOPDebates'
p274
aS'@larryelder: Trump should have said, "Megyn, ask these nine candidates, if they plan to support ME when I win the nomination."\r#GOPDebat\x89\xdb_'
p275
aS'@anricb: The @realDonaldTrump should have asked @megynkelly "ask these 9 candidates if THEY would support ME when I win the nomination" \x89\xdb_'
p276
aS'\x89\xdb\xcfAre We Being Punk\x89\xdb\xaad?\x89\xdb\x9d Twitter Has A Field Day With Round 1 Of The #GOPDebates http://t.co/0yX61vKDtm'
p277
aS"@AndraGillespie: Still debating last night's debate? Check out my colleagues and my take at http://t.co/f8BdMvo0lW. #GOPDebate #GOPDebat\x89\xdb_"
p278
aS'At the 14:55 mark,Donald Trump explains why he will not run as an Independent. Its just a leverage play. #GOPDebates\rhttps://t.co/C7t6EPcmEd'
p279
aS'Master Debates:  Rosie Refudiates Trump Pump. "I\'m really not a slob, Donny." #GOPDebates #Trump'
p280
aS'@BettyFckinWhite: So Donald Trump is Biff from Back to the Future 2? #GOPDebates #womensrights  #combover http://t.co/IS9GYB7P31'
p281
aS'Video: Gallery Sessions | @archerone #stayinspired | #Donaldchump @analigital #gallery #gopdebates... http://t.co/F3q3QydKLK'
p282
aS'"Santa Claus is Coming to Town" NEEDS a reboot because #DonaldTrump was born to play the Burgermeister Meisterburger!  #GOPDebates GOOGLE IT'
p283
aS"Trump answers @megynkelly question about his insulting women with an insult. Can't wait 'til he starts in on @RondaRousey #GOPDebates"
p284
aS"MSNBC got it right: RNC let Fox handle this because RNC wanted field narrowed and didn't wanna do it. Clearly agenda = ax Trump. #GOPDebates"
p285
aS'Initial GOP horse race. #GOPDebates 1.Trump 2.Cruz 3.Rubio 4. Kasich. Paul tanked by showing crybaby early.'
p286
aS'@WMUR9: What do you think of this statement from @realdonaldtrump? #GOPDebates http://t.co/lxOUEGlvKj'
p287
aS'Trump gave to many politicians because they system is broken.  He is telling us how it works and says it is wrong.  #GOPDebates'
p288
aS'@TrotAlex: Sorry @edhenry I was not offended by @realDonaldTrump ! As a woman I was offended by @megynkelly !!! #GOPDebates #KellyFile'
p289
aS"He's going independent you watch. Lol #TrumpIndependentTrain #GopDebates  https://t.co/NDa3wPmXKt"
p290
aS"@RWSurferGirl: I'm really really really pissed off at FOX News for what they did to @realDonaldTrump #GOPDebate  #GOPDebates _\xd9\xe0\xbc_\xd9\xe0\xfc"
p291
aS'Roger Ailes set up @realDonaldTrump from the first Q. #GopDebates  https://t.co/UI7UcYjCpU'
p292
aS'Carly Fiorina was the big winner tonight in my opinion.Seemed 2b coolest,most competent leader in both #GOPdebates. #TrumpFiorina #GOPDebate'
p293
aS'I was RIGHT! I should be an independent political strategist! #Trump failing #Fox focus poll! #Kasich is moving up! #GOPDebates'
p294
aS'@Apathycase: So, Trump buys politicians, used bankruptcy to his advantage, skirted laws for money, and admitted to wanting single payer \x89\xdb_'
p295
aS'@realDonaldTrump was almost cordial with Dr Carson and those 8 insurance salesmen. #GOPdebates'
p296
aS"No he insulted her. And she's not MSNBC re goes the difference. Lol #Trump #GOPDebates  https://t.co/76yiYi3WwD"
p297
aS"@RWSurferGirl: Ask Trump a legitimate question. Look at Wallace's face when Trump nails it. _\xd9\xe0\xbc_\xd9\xe0\xfc #GOPDebate  #GOPDebates"
p298
aS"\x89\xdb\xcf@msgoddessrises: #Kasich #Bush #Trump but Donald's numbers are going to slip. #GOPDebates  https://t.co/qXcLQ93Val\x89\xdb\x9d not sure about Trump"
p299
aS'"We don\'t have time for [PC] \'tone,\' we\'ve got to go out there and get the job done." -@realDonaldTrump #GOPDebates _\xd9\xe0\xbc_\xd9\xe0\xfc &lt; can\'t dispute that.'
p300
aS'"WE\'RE A NATION OF LOSERS. EXCEPT ME, I MADE MONEY." --Trump #GOPDebates'
p301
aS'Trump: I WILL DO ALL OF THE POINTS #GOPDebates'
p302
aS'Donald Trump: "We should just not import things." #GOPDebates'
p303
aS'Trump closing statement. "We suck." #GOPdebates'
p304
aS'I disagree but defend your right to your own opinion. Vive la difference!!\r#GOPDebates @realDonaldTrump  https://t.co/kDbT7xfeUH'
p305
aS"@SaintGrimlock: Trump was thinking message from God, I haven't told these other guys anything....#GOPDebates"
p306
aS'@illinimarine7: Cruz: hardball ?\rTrump: smear ?\rRubio: hardball ?\rBush: what is your favorite color?\r#GOPDebates'
p307
aS'HOW COULD YOU NOT ASK TRUMP ABOUT GOD #GOPDebates'
p308
aS"Trump was thinking message from God, I haven't told these other guys anything....#GOPDebates"
p309
aS'Trump did not get to answer the God ?#GOPDebates'
p310
aS'They did not ask Trump about God. #GOPDebates'
p311
aS'Waiting on Trumps answer about God #GOPDebates #aintenoughpopcornforthis'
p312
aS'@RWSurferGirl: You would never know @realDonaldTrump  is the frontrunner from watching this debate. _\xd9\xe0\xbc_\xd9\xe0\xfc #GOPDebate  #GOPDebates'
p313
aS'.@skynews keeps calling Trump "Billionaire Reality TV Star", and it\'s incredible. #GOPDebates'
p314
aS'Can we declare bankruptcy to China? #Trump #GOPdebates'
p315
aS"@RWSurferGirl: The candidates don't have to attack @realDonaldTrump Fox is doing it for them by stoping him from speaking. _\xd9\xe0\xbc_\xd9\xe0\xfc #GOPDebate\x89\xdb_"
p316
aS'@RWSurferGirl: Trump has got it right, nobody would talk about immigration, not untill be brought it up. #GOPDebate #GOPDebates'
p317
aS'The opening of CSI Miami supports Trump, apparently #GOPDebates'
p318
aS'#DonaldTrump just dodged the Russia question #GOPDebates'
p319
aS'Only Trump gets to talk about the Russia question? #GOPDebates'
p320
aS".@nickconfessore is right. There are 2 #GOPDebates: the boring one &amp; one where Trump pretends he's still on the apprentice &amp; runs the show"
p321
aS'LOL since when is not being nice a no no to Trump? #GOPDebates'
p322
aS'View from our window as we watch the #GOPdebates #trump #donaldtrump who stands out to you? https://t.co/e4r4FX4jqE'
p323
aS'@RWSurferGirl: @tedcruz and @realDonaldTrump need to take control of this debate,  they can do it, _\xd9\xe0\xbc_\xd9\xe0\xfc #GOPDebate  #GOPDebates'
p324
aS'@SandraEckersley: Bankruptcy. The Donald Trump master plan for the USA that must look appealing now to Joe Hockey &amp; Tony Abbott. #GOPDeb\x89\xdb_'
p325
aS'Trump replaces "flip flop" with "evolved". #GOPdebates #toolateforKerry #pivot'
p326
aS'Trump: Bush admin "A catastrophe"and the audience tried to clap.  They didn\'t know what to do. #GOPDebates #GOPDebacle'
p327
aS"@RWSurferGirl: FOX News won't admit who the Republican leader is right now I mean @realDonaldTrump only has a double-digit lead _\xd9\xe0\xbc_\xd9\xe0\xfc #GOPD\x89\xdb_"
p328
aS'#Trump: "I don\'t think they like me very much" #GOPDebates'
p329
aS'Megyn Kelly to Trump: "Why you here?" #GOPDebates'
p330
aS"Trump's hair registered GOP before he did. #GOPDebates"
p331
aS'@RWSurferGirl: I think Cruz and Trump need to band together and expose this set up job, and get rid of Bush and Rubio, _\xd9\xe0\xbc_\xd9\xe0\xfc #GOPDebate  #G\x89\xdb_'
p332
aS'@RWSurferGirl: I am wondering what Fox is up to with THIS debate -- get rid of Trump, Paul, Cruz, Carson? _\xd9\xe0\xbc_\xd9\xe0\xfc #GOPDebates  #GOPDebate'
p333
aS"@RWSurferGirl: Thanks Fox News, you're raising @realDonaldTrump 's ratings. _\xd9\xe0\xbc_\xd9\xe0\xfc #GOPDebate  #GOPDebates"
p334
aS"@RWSurferGirl: Thanks Fox News, you're raising @realDonaldTrump 's ratings. _\xd9\xe0\xbc_\xd9\xe0\xfc #GOPDebate  #GOPDebates-sorry acting like democrat"
p335
aS'Walked into the Donald Trump Show #GopDebates'
p336
aS"@tmservo433: Trump: Banks aren't babies. They are killers. Hell yes I got away from bad deals, and I can make the USA a scofflaw too! #G\x89\xdb_"
p337
aS'@llaughlin: So Trump is rich? #GOPDebates'
p338
aS'Oh, Trump, Trump, Trump...#GOPDebates'
p339
aS'Trump - "I had the good sense to take MY money and run. Screw y\'all" #GOPDebates'
p340
aS"Dig into everyone's financials if you are doing that to #Trump ! \r#GOPDebates"
p341
aS"@jsc1835: We know you're rich Donald Trump. Really rich. Now can it.\r#GOPDebates  #BeerTweets"
p342
aS"I'd be interested to see responses to what people would be willing to do #IfTrumpPaidYou #GOPDebates"
p343
aS'@SamanthaJoRoth: .@realDonaldTrump - "With Hillary Clinton, I said be at my wedding and then she had no choice." #GOPDebates'
p344
aS'@kwrcrow: @realDonaldTrump hits it out of park on @FoxNews gotcha question on campaign donations. #GOPDebates'
p345
aS'Trump and most of the World! Just look at the Contribution List to the Clinton foundation #GOPDebates  https://t.co/erFUgRo2cb'
p346
a.