(lp1
S'@DanScavino: #GOPDebate w/ @realDonaldTrump delivered the highest ratings in the history of presidential debates. #Trump2016 http://t.co\x89\xdb_'
p2
aS'\x89\xdb\xcf@DanScavino: #GOPDebate w/ @realDonaldTrump delivered the highest ratings in the history of presidential debates. #Trump2016 Fox say thanks'
p3
aS'@FrankLuntz: Before the #GOPDebate, 14 focus groupers said they had favorable view of Trump.\r\rAfter, only 3 saw him positively.  http://\x89\xdb_'
p4
aS"@MsPackyetti: Donald Trump's campaign reveals 1 important thing: Twitter Trolls are real people.\r\rAnd they vote. \r\rThat should scare eve\x89\xdb_"
p5
aS'@libertyjibbet: Hey .@realDonaldTrump You know who didn\'t whine about "unfair" questions? @CarlyFiorina Grow a set why don\'t ya\'. #GOPDe\x89\xdb_'
p6
aS'#Trump is right about @megynkelly but really needs to study Matthew 7, verses 3-5. #GOPDebate  https://t.co/ygNprhiehV'
p7
aS'@DanScavino: #GOPDebate Winner!\rDrudge 50% (187K) @realDonaldTrump \rTIME 46% (25K) @realDonaldTrump \rFOXSD 49% @realDonaldTrump http://t\x89\xdb_'
p8
aS'Did @realDonaldTrump ever tell @megynkelly to go wait in the car? Her bad attitude suggests it. #WarOnWomen #GOPDebate'
p9
aS"#GOPDebate #Trump is Breaking Records! So what he's not a polished Politician. Makes me love him even more.  https://t.co/TgOwCHxf3x"
p10
aS'@realDonaldTrump You killed it last night at the #GOPDebate glad to have some that cares for America  #MakeAmericaGreatAgain'
p11
aS'Donald is my hero. \r #GOPDebate http://t.co/9ZZFLChJQO'
p12
aS"@JohnAmato: I actually agree with @AndreaTantaros on something. She said @realDonaldTrump didn't hurt himself in #GOPDebate and I concur."
p13
aS'@1216BJ: #GOPDebate: Carly Fiorina Dominates Social Media, Even Beating Out Trump - Fox Nation http://t.co/VUeEveRdDy'
p14
aS'@WayneDupreeShow: Disagree all you want\r\r#GOPDebate was hit job on @realDonaldTrump and calculated mute job on @SenTedCruz @RealBenCarso\x89\xdb_'
p15
aS"I actually agree with @AndreaTantaros on something. She said @realDonaldTrump didn't hurt himself in #GOPDebate and I concur."
p16
aS'#GOPDebate Debate was good once they quit throwing crap at @realDonaldTrump and got substantive.  Candidates handled the "gotcha" questions.'
p17
aS'So who watched the GOP Debate last night and saw Trump #DonaldTrump #GOPDebate @realDonaldTrump #TrumpForPresident'
p18
aS'NOT A FAN OF #FoxNews @megynkelly but she deserves better than to be called BIMBO by #lDonaldTrump for doing her job\r\r#GOPDebate #UniteBlue'
p19
aS"Which candidate really likes hugs? The one word that defined each one's #GOPDebate http://t.co/RGHrEnzEwI http://t.co/rZZzG0m3P0"
p20
aS"@nerdist: Trump's really great in Orange is the New Orange #GOPDebate"
p21
aS'#Trump2016 #GOPDebate The Illuminati want him out, but he will win the same http://t.co/2kVlxWB9Kd http://t.co/zyCvnY4NOq'
p22
aS'@realDonaldTrump treated @RandPaul like the little gnat he is. \r#GOPDebate #tcot #trump #MakeAmericaGreatAgain #GoTrump'
p23
aS'@DanScavino: .@realDonaldTrump wins 1st #GOPDebate!\r#MakeAmericaGreatAgain #Trump2016 #TeamTrump #TrumpForPresident _\xd9\xe0\xbc_\xd9\xe0\xfc http://t.co/2P8dW\x89\xdb_'
p24
aS'@becca0mae: I don\'t know who won the debate, but @Writeintrump definitely won the award for "best #GOPDebate live tweeting"'
p25
aS'@DanScavino: 2015 #GOPDebate Winner?\rTime has @realDonaldTrump leading with 42%. \r#Trump2016 #MakeAmericaGreatAgain _\xd9\xe0\xbc_\xd9\xe0\xfc http://t.co/dOckS\x89\xdb_'
p26
aS'@blondieforkeeps: @Koolmoe21 I want a #trump for president shirt!!! #GOPDebate'
p27
aS'@rabite: The winner is clear: @realDonaldTrump #GOPDebate http://t.co/w2gxqowO4P'
p28
aS'@JaxT0520: Done with @FoxNews after last nights #GOPDebate @megynkelly showed her true colors but @realDonaldTrump shined! #Trump2016'
p29
aS".@ljcambria @realDonaldTrump Don't forget to vote for him! Especislly when he has to go Independent! #LULZ  #HUCKSTER #RNC #GOP #GOPDebate"
p30
aS'@realDonaldTrump to primary voters: "Your chances look good for the general election. It\'d be a shame if something happened..." #GOPDebate'
p31
aS'@DanScavino: #FoxNews #SanDiego - @realDonaldTrump clearly won the #GOPDebate. cc; @megynkelly @BretBaier http://t.co/Wvr3QHAmrH'
p32
aS'@DanScavino: .@megynkelly,\rSome results on how candidates did at #GOPDebate. #MakeAmericaGreatAgain #Trump2016 #KellyFailed http://t.co/\x89\xdb_'
p33
aS"Winners, losers, &amp; @realDonaldTrump. Here's my round-up of #GOPdebate-&gt;http://t.co/RNUNbPaWgp http://t.co/sfQIwda61G"
p34
aS'Trump/Carson ticket would win in a landslide...\r@realDonaldTrump @seanhannity @AnnCoulter #Republican #potus #Trump2016 #GOPDebate #trump'
p35
aS'#GOPDebate w/ @realDonaldTrump delivered the highest ratings in the history of presidential debates. #Trump2016 http://t.co/Sy3wNqwHTb'
p36
aS'@FoxNews failed @megynkelly appeared follish and @realDonaldTrump ROCKED the HOUSE!#GOPDebate  https://t.co/BUoYE6dNLl'
p37
aS'@realDonaldTrump is a treat for us all to enjoy. #GOPDebate'
p38
aS"@allegrakirkland: .@realdonaldtrump shared some inspiring applause lines at last night's #GOPDebate: http://t.co/5hWdKfgPxA http://t.co/\x89\xdb_"
p39
aS"@AmyMek: .@foxnews tried their best to destroy @realDonaldTrump tonight! However, it didn't work\x89\xdb_.it just exposed your network! #Fail #G\x89\xdb_"
p40
aS'@Raiden679: Good explanation as to why #Trump surges ahead of other #cuckservative candidates. #GOPDebate http://t.co/hagmnn1Tv7 http://\x89\xdb_'
p41
aS'@realDonaldTrump #MakeAmericaGreatAgain #GOPDebate #TrumpForPresident  I put this together for you. http://t.co/TZtK7BC1rm via @chirbit'
p42
aS'@bobcesca_go: Trump won the debate. Christie, I think, was a strong second. #GOPDebate'
p43
aS"17 candidates + #Trump makes the #GOPDebate interesting for a change! Top 10 moments from Thursday's debate http://t.co/1069hw6pbl"
p44
aS'@joshtpm #GOPDebate Mission Statement: Tell more people that U love them U never know how much they might need it -C Brogan'
p45
aS'WHAT IS LOVE? Presenting D Trump at the Roxbury! https://t.co/SERwdl1yfc #DonaldTrump #GOPDebate http://t.co/k5kvYbeij8'
p46
aS'@ShooterMcGavin_: Donald Trump is the Shooter McGavin of Politicians #GOPDebate'
p47
aS"@TrumpIssues: Feminists can complain about the temperature in a room being a form of patriarchy, but Trump can't call one of them a slob\x89\xdb_"
p48
aS'Trump: \x89\xdb\xf7I Would\x89\xdb\xaa Shut Down the Gov\x89\xdb\xaat to Defund Planned Parenthood and Obamacare http://t.co/XiwhA8kjf7 Woot! #GOPDebate'
p49
aS'@JacobEngels: .@realDonaldTrump is winning. Key takeaways from the #FoxDebate. http://t.co/DYLhHIHpDT #GOPDebate #sayfie #tcot #gop2016 \x89\xdb_'
p50
aS'Public policy and the #gopdebate or why #donaldtrump is winning. http://t.co/2Tv5M6onVo'
p51
aS"While I sometimes don't like @realDonaldTrump 's character, he's still the only candidate calling it like it is. #GOPDebate #ycot"
p52
aS'IMO @realDonaldTrump was targeted by @FoxNews in a biased attack No choice but 2 b on defens Could not offer any real subsatnce #GOPDebate'
p53
aS'@toddstarnes: So this isn\x89\xdb\xaat a \x89\xdb\xcfBash Trump\x89\xdb\x9d debate. This is a \x89\xdb\xcfDestroy Trump\x89\xdb\x9d debate. But Trump is still standing. #GOPDebate'
p54
aS"@JohnGGalt: \x89\xdb\xcfWe don't have time for tone...we have to go out and get the job done.\x89\xdb\x9d \x89\xdb\xd3Donald Trump #GOPDebate http://t.co/mIYhIPDkqs"
p55
aS'Trump &amp; co drew NBA Finals type viewership for #GOPdebate, MURICA wins again.'
p56
aS'@Suthen_boy Trump exposed the fact that every other candidate is nothing more than the puppet of their wealthy benefactors!  \r#GOPDebate'
p57
aS"@lindacohn: Trump showed he didn't belong but did GOP a favor. Better ratings &amp; he brought out personalities and ideas of other candidat\x89\xdb_"
p58
aS'This is my favorite quote of the #GOPDebate This is the only point @realDonaldTrump needed to make.  https://t.co/KwHdfmUvA5'
p59
aS'Omg when Trump raises his hand and the audience goes crazy. #GOPdebate'
p60
aS"@ACPress_Tracey: .@_Hetrick and @ACPressKramer with a great look at @realDonaldTrump's record in AC. Apropos, after #GOPDebate Thurs. ht\x89\xdb_"
p61
aS'@DanScavino: .@realDonaldTrump has complete control of #GOPDebate stage tonight @BretBaier @megynkelly #KellyFailed #Trump2016 _\xd9\xe0\xbc_\xd9\xe0\xfc http:/\x89\xdb_'
p62
aS'@nannacassie: A small window into #trump tonight. He has a soft side. Being "nice, class act, respectful &amp; fair" matters to him. #GOPDeb\x89\xdb_'
p63
aS'.@realDonaldTrump totally dominates @DRUDGE_REPORT and @TIME #GOPDebate polls #MakeAmericaGreatAgain @DanScavino http://t.co/i6pRS1OLJu'
p64
aS"@FoxNews #GOPDebate a lovefest for Republican party. Problem wasn't just @megynkelly but all producers involved in burying @realDonaldTrump"
p65
aS"'President Donald Trump'. I like the way that sound. \r@realDonaldTrump \r#GOPDebate"
p66
aS"@Dee_Snuts_R4E10: @realDonaldTrump just won on @seanhannity by saying he'd put hillary in jail bc they destroyed Petraeus for much less.\x89\xdb_"
p67
aS"Easily the best part of last night's #GOPDebate \x89\xdb\xcf@SRShowSXM: Trump takes down Rosie. https://t.co/kC62VtBf6p\x89\xdb\x9d"
p68
aS'@DemsRRealRacist: Trump keeps trying to make definitive statements when the #GOPDebate is actually for mealy-mouthed hemming and hawing.\x89\xdb_'
p69
aS"@AgainstCronyCap: Fiorina calls Trump out for giving to Hillary's Senate run http://t.co/huTOQZGYud #Trump2016 #GOPDebate http://t.co/1X\x89\xdb_"
p70
aS'@TomBradysEgo: He got my vote #GOPDebate http://t.co/XMFPoYhcN1'
p71
aS"Not only Mr. @realDonaldTrump 's polls are #1, but his Twitter followers are spiking up. #1stplace #trump #gopdebate http://t.co/Q9YXEH55EF"
p72
aS"@NRO: If you missed the first few minutes of last night's #GOPDebate -- you have got to see this: http://t.co/Rlww9F1Ote"
p73
aS'Trump is like napalm sprayed over all the other candidates. #GOPDebate'
p74
aS'@ericbolling ppl say @realDonaldTrump needs specifics. so, WHY did #GOPDebate panel give all THOSE type of questions to opponents?! RIGGED!'
p75
aS'Megyn Kelly played footies with Debbie Washerwoman Schultz. She attempted to take out Donald Trump. \r#Foxnews\r#Gopdebate'
p76
aS"@saramarietweets: Trump isn't a career politician either &amp; I like him. Carson just lacks the experience and knowledge. @jaxnmelody @GOP \x89\xdb_"
p77
aS'Trump haters seem especially mad today. I wonder why lol? Whiny little bitches should get over it. #GOPDebate'
p78
aS'@ilirprogri: @FoxNews @lizpeek @realDonaldTrump is highly adaptable! He will improve more than anyone else from the #GOPDebate #Inconsis\x89\xdb_'
p79
aS'#GOPDebate #GOP #GOPClownCar Best video EVER !!!!!!  Night at the Roxbury with the @realDonaldTrump ! LOL ! https://t.co/uHq5vx44JW'
p80
aS'@politichickAM: #GOPDebate @realDonaldTrump "If it weren\'t for me you wouldn\'t talk about illegal immigration." #TRUTH'
p81
aS"I guess yesterday's #GOPDebate and watching #DonaldTrump was more entertaining than Fantastic Four.  @RottenTomatoes http://t.co/GiMBjTFRtP"
p82
aS'#Trump was spot on in his description of business bankruptcies. Playing by same rules as all businesses. #GOPDebate  https://t.co/cgNHoXchDL'
p83
aS'@realDonaldTrump @megynkelly Megyn tried to Stump the Trump and got burned. #Trump #GOPDebate'
p84
aS'I think Trump should have been debate moderator. That would be a good role for him #GOPDebate'
p85
aS'#GOPDebate  @FoxNews better watch out I believe the @realDonaldTrump will be fighting back.'
p86
aS'Gotta remember @realDonaldTrump is a leader not a debater. Held his own against deep rooted politicians very well. #Trump2016 #GOPDebate'
p87
aS'@hillarysusans: @realDonaldTrump I had to watch this morning on DVR and wow, the "moderators" went after you! Not right at all. #GOPDeba\x89\xdb_'
p88
aS'@realDonaldTrump I had to watch this morning on DVR and wow, the "moderators" went after you! Not right at all. #GOPDebate You held your own'
p89
aS"@realDonaldTrump @megynkelly @bretbaier #GOPDebate Mods job is2 ask Qs we don't know answers 2 not bait &amp; target a candidate #Trump2016"
p90
aS"If you are one to complain about America's corrupt 2 party system - you better not complain about Trump's threat last night #Vote #GOPDebate"
p91
aS'I am not the biggest @megynkelly fan in the world. (Or Fox in general) but I really enjoyed her question to Trump about women #GOPDebate'
p92
aS'Women always call men pigs. If #Trump calls them a dog they should shut up, hypocrites @realdonaldtrump @megynkelly #GOPDebate #tcot #tlot'
p93
aS'@realDonaldTrump @FoxNews so much fun watching the GOP/FOX circus implode. #GOPDebate'
p94
aS"#GOPDebate #DonaldTrump all the way. Time to fix Obama's mess."
p95
aS'@realDonaldTrump thank u for ur support of Single Payer HC last night at the #GOPDebate. I hope ur supporters agree in it also! #obamacare'
p96
aS'Tea4TeXs: RT CNN: No one eclipses realDonaldTrump at #GOPDebate: http://t.co/nzR6p3CKW9 via CNNPolitics \x89\xdb_ http://t.co/AuhlNZa3Ww'
p97
aS'Fuck ya Donald Trump you rocked #GOPDebate smoking all those pathetic career politicians! Keep up the great work!!! http://t.co/NVOMySTNvs'
p98
aS'I thought #GOPDebate was good, despite @realDonaldTrump grandstanding. @BenCarson2016 really brought logic to back to the campaign table.'
p99
aS"I missed the #GOPDebate, but I'm amazed that Trump is somehow considered in the lead.\rhttps://t.co/Qzmg96pf75"
p100
aS'@DanScavino Rick Santorum ranks #13 in GOP field on Twitter mentions over last 60min\r#gopdebate\rhttps://t.co/F687D6Objl\r#potus2016'
p101
aS"@someecards: 16 of the funniest reactions to last night's inadvertently hilarious GOP debate. http://t.co/nKWjLscECM #GOPDebate http://t\x89\xdb_"
p102
aS'FrankLuntz LOL he probably likes loser candidates like McCain, Romney &amp; Bush! #Trump2016 won #GOPDebate hands down\x89\xdb_ http://t.co/zQphlSqDUn'
p103
aS'\x89\xdb\xcf@OutnumberedFNC: .@JedediahBila "I want to put someone in [office] that I don\'t want to have to worry about." #GOPDebate\x89\xdb\x9d then..#Trump2016'
p104
aS"#FairandBalanced wasn't the case in the #GOPDebate. @realDonaldTrump was treated unfairly. He will make up for it soon. #outnumbered"
p105
aS'@FrankLuntz LOL he probably likes loser candidates like McCain, Romney &amp; Bush! #Trump2016 won #GOPDebate hands down! Next President = Trump!'
p106
aS'@AmyMek @realDonaldTrump @megynkelly @FrankLuntz I would like to thank Rand Paul for exposing Trump 4 the Democrat that he is #GOPDebate'
p107
aS"@Writeintrump: To prove I'm a good sport, I'm giving all the losers of tonight's #GOPDebate The Apprentice board game to take home. http\x89\xdb_"
p108
aS'@KurtSchlichter: Trump is actually right about the bankruptcy laws. Someone please kill me. #GOPDebate'
p109
aS'@FrankLuntz LOL sham focus group, a bunch of Bush/RNC plants! #Trump2016 won #GOPDebate hands down!'
p110
aS'The reason @realDonaldTrump did not take that pledge at #GOPDebate is exactly because he is a good negotiator.'
p111
aS'@FrankLuntz @megynkelly your "focus group" was a joke! Your takedown attempt of #Trump2016 was a huge fail! Trump won #GOPDebate easily!'
p112
aS'@BernardGoldberg: Donald the real RINO in the race. But he doesn\x89\xdb\xaat mean it. http://t.co/9BaQOqpXoN #GOPDebate'
p113
aS'Megyn Kelly was the real winner of the #GOPDEBATE last night \r#FOXNEWSDEBATE  #Trump #FoxNews http://t.co/EEavzmRvb2'
p114
aS"I'm glad trump shut down four failing biz. He didn't borrow 19 trillion to keep them afloat and enslave his children's children #GOPDebate"
p115
aS'@politicoroger: Donald Trump just tweeted that his jet has landed in Cleveland. The earth moved. #GOPDebate http://t.co/LBef8189yB'
p116
aS'TRUMP WINS! He is FRONT PAGE - Every news source - Billions in FREE Advetising @realDonaldTrump #GOPDebate #Trump2016'
p117
aS'@TrumpIssues @realDonaldTrump  #GOPDebate #2016Debate elect Trump, only he and @SarahPalinUSA can save America'
p118
aS'@jamalraad: Trump immigration strategy https://t.co/QZMfehR8VF #GOPDebate'
p119
aS'#Out Thank u for thoughtful reflection on #GOPDebate. A @FoxNews recovery. Some Trump ques lame BS fluff. Made Megyn look bad.'
p120
aS"@KatiePavlich: Donald Trump isn't a Democrat, he isn't a Republican, he's Donald Trump. #GOPdebate"
p121
aS'@Diplomtc_Immnty: @realDonaldTrump They tried to take you out &amp; your poll numbers skyrocketed. Voters matter, not @FOXNews moderators.\r#\x89\xdb_'
p122
aS'@realDonaldTrump lives to fight another day. Odds seem to ever be in his favor. #GOPDebate #hungergames #DonaldTrump http://t.co/eG6X6onkKT'
p123
aS"@MiaHoll18: @BradThor If Mr. Trump runs as an Independent the Republicans can't win either. #GOPDebate"
p124
aS'@politicoroger: Trump: "Our leaders are stupid; our politicians are stupid. The Mexican government is much smarter." #GOPDebate'
p125
aS'#DonaldTrump Wins #GOPDebate  https://t.co/mR3eHwanVz'
p126
aS'@He_Has_Failed: 200,000 votes over at Drudge and Trump is absolutely dominating the #GOPDebate \r#tcot http://t.co/kU0ul7HZQY'
p127
aS'@edwrather: Trump slams Megyn Kelly http://t.co/oBNQDPOemX via @worldnetdaily #GOPDebate #Tcot #ccot #pjnet #WakeUpAmerica #MakeDCListen'
p128
aS"The more I read that Trump lost the #GOPDebate. the more I'm convinced that his poll numbers are only going up."
p129
aS'Real talk. Trump won the debate of the out of touch candidates. #GOPDebate'
p130
aS'@megynkelly Did @CandyCrowley coach you for last nights #GOPDebate ? @FoxNews @realDonaldTrump'
p131
aS"OK Trump you're the one who brought immigration to national stage sure lets go with that makes sense #GOPDebate"
p132
aS'@NYTFridge: Trump: "Jeremy\'s newspaper [@nytimes], a very good newspaper, has a beautiful story saying I won!" #GOPDebate  https://t.co/\x89\xdb_'
p133
aS'@tramontela: More great coverage @WKSU @MLSchultze http://t.co/BryjH5EPif @MonchosBarCLE @montoyaisabelc #GOPDebate #TrumpEffect #ImPower'
p134
aS"#Trump: I was born and I'm awesome so no one should have an abortion. #GOPDebate #cantarguewiththefacts"
p135
aS'Trump leads among male voters... he also leads among female voters.  #GOPDebate'
p136
aS"@LadySandersfarm: We're sick of political correctness, it's killing the heart and soul of this country. #GOPDebate #Trump2016 http://t.c\x89\xdb_"
p137
aS'Trump slams Megyn Kelly http://t.co/oBNQDPOemX via @worldnetdaily #GOPDebate #Tcot #ccot #pjnet #WakeUpAmerica #MakeDCListen'
p138
aS'What a show! #Trump #GOPDebate #RosieODonnell \x89\xdb\xd3 watching Republican Presidential Candidates Debate'
p139
aS'@MURlCAFUCKYEAH: RT if you agree!\r\r\x89\xdb\xcfThe big problem this country has is being politically correct\x89\xdb\x9d #GOPDebate http://t.co/liuGl1haa3'
p140
aS'.@realDonaldTrump will be the best thing to happen to #Democratic #GOTV in history. #GOPDebate #GOPClownCar'
p141
aS'@IvankaTrump: At the #GOPdebate in support of my amazing father. I am very proud of you @realdonaldtrump!\x89\xdb_ https://t.co/9bQju4zofb'
p142
aS'@realDonaldTrump on point with response to @megynkelly "When did you become a Republican? " #GOPDebate'
p143
aS'@CarlyFiorina @realDonaldTrump #GOPDebate \rCountry before party!  Why pledge away the option to do what may need to be done.'
p144
aS"@RepJackKimble: I liked Donald Trump's contention that he literally didn't have enough time not to make fun of Rosie O'Donnell's weight \x89\xdb_"
p145
aS'@FreedomTexasMom: . @seanhannity  THANK YOU for being fair to the GOP front runner @realDonaldTrump This is why I LOVE #Hannity #FoxNews\x89\xdb_'
p146
aS".@ppact can sell baby parts for profit, or whatever you want to call it, but Trump can't call a woman a slob. #GOPDebate #PC #Trump2016"
p147
aS'. @seanhannity  THANK YOU for being fair to the GOP front runner @realDonaldTrump This is why I LOVE #Hannity #FoxNews #GOPDebate #Respect'
p148
aS'Donald Trump is so funny _\xd9\xf7\xe2 #GOPDebate'
p149
aS'@BonsaiSky: I would pay money to see a debate between Hillary Clinton and Donald Trump. You know Donald will bring up Monica _\xd9\xf7\xe2 #GOPDebate'
p150
aS'#GOPDebate showed that politicians are great liars. Smooth talkers, but have to OBEY doners.  I will vote Trump - he has no reason 2 lie'
p151
aS'Donald Trump is John Galt. Chew on it. #gopdebate'
p152
aS'The Donald is every bit as gracious in Victory as he is in defeat #gopDebate #2016'
p153
aS"@Writeintrump: Is it rude to drop the mic after delivering an awesome line during the #GOPDebate? I don't care if it is, I'm doing it an\x89\xdb_"
p154
aS"It's brilliant that Trump never apologizes for anything he says. I mean everyone loves a bully, right? #dumptrump #GOPDebate"
p155
aS'@dan_bernstein That debate or if you can call it that was just a joke. The biggest one of all is Donald Trump. #GOPDebate'
p156
aS"@MediaBoobs: #NSFW Why Donald Trump won last night's #GOPDebate http://t.co/zhtJorprQb"
p157
aS"@hilderestad: Republican strategist @FrankLuntz 's focus group during #GOPDebate ended up decidedly not liking Trump by end of debate."
p158
aS"Kim Kardashian can make a sex tape, have a TV show &amp; do a promo pose with Hillary, but Trump can't call a women a dog. #GOPDebate #PC"
p159
aS'@alexandraheuser: NYT Lib take on #GOPDebate On support4 Trump audience @ NY beer hall \x89\xdb\xcfIn a room full of progressives, u better believe\x89\xdb_'
p160
aS"@Writeintrump: I'm the only one on stage who can handle Iran. If anyone can understand Persians, it's a guy who lives in a Gold Penthous\x89\xdb_"
p161
aS'@realDonaldTrump explains campaign finance at #GOPDebate lat night. Very insightful piece by @voxdotcom http://t.co/LostDaifAn'
p162
aS".@megynkelly slayed the #GOPDebate and asked thought provoking questions. _\xd9\xd4\x8f_\xd9\x8f_ or else @realDonaldTrump wouldn't be tweeting about it."
p163
aS'@ShannaR86570997: \x89\xdb\xcf@megynkelly: #KellyFile is LIVE now with reaction to #GOPDebate your @realDonaldTrump attack was obvious why are u so\x89\xdb_'
p164
aS'.@KObradovich on Trump &amp; #GOPDebate: " been bulletproof so far in the race and that\x89\xdb\xaas unlikely to change" #iacaucus http://t.co/HFvzJIxXJY'
p165
aS'Good explanation as to why #Trump surges ahead of other #cuckservative candidates. #GOPDebate http://t.co/hagmnn1Tv7 http://t.co/WOkhF3sU88'
p166
aS'Love when the #GOPDebate takes over @mamasbarnyc - That hair looks great on the big screen @realDonaldTrump http://t.co/Tq7EZQeFMM'
p167
aS'Trump schooling Chris Wallace reminded me of that scene in Back To School where Dangerfield schooled the nerdy biz professor. #GOPDebate'
p168
aS'The #DonaldTrump show! #foxnews #GOPDebate http://t.co/fO3D5Ad0ag'
p169
aS'Great, great list idea for localization of election coverage: http://t.co/3yrrQf7AxL #GOPDebate'
p170
aS'At least #DonaldTrump can make you laugh. Hope Americans can see beyond that. Trouble in paradise orelse #GOPDebate  https://t.co/0DiB68mbJn'
p171
aS'That moment when you graduated from High School so you can watch the #GOPDebate and #DonaldTrump :))'
p172
aS'Say what you want but if the gop ratings are through the roof you can single handedly thank @realDonaldTrump for it #GOPDebate'
p173
aS"@419in703: .@realDonaldTrump said it best last night: It's time to #GetMoneyOut #GOPDebate #GOPTBT #KochVsPope http://t.co/xNo4YcFzIV"
p174
aS"@Gdestefano95: #GOPDebate  \rTRUMP PROVED HE'S GOT BALLS TO WEILD U.S. POWER!  He'll assemble a killer team &amp; GET IT DONE! \r\r@realDonaldT\x89\xdb_"
p175
aS'@megynkelly @BretBaier @FoxNewsSunday Ppl say @realDonaldTrump needs specifics. Yet u gave THOSE type questions ONLY to opponents #GOPDebate'
p176
aS'@ElizabethND04: I wish @CarlyFiorina was putting these dudes, especially Trump and Christie, in their places. #GOPDebate #FoxDebate  htt\x89\xdb_'
p177
aS"#Trump2016's healthcare answer actually made some sense. #GOPDebate"
p178
aS'#Trump must be doing something right to have Lame-Stream Media FOX - Karl Rove - NEWS come out swinging at him. \r#GOPDebate @realDonaldTrump'
p179
aS"I'm still for @realDonaldTrump, @JebBush reminds me of Jimmy Carter n a bit like @JohnKerry , which is fine, we just need tuffer #GOPDebate"
p180
aS'@megynkelly: .@brithume: @realDonaldTrump did fine #GOPDebate'
p181
aS'Of course #InternationalBeerDay comes after the #GOPDebate. Donald Trump was gold last night. We watched it at a bar http://t.co/X38ctJaxwN'
p182
aS'@Mike_Surtel: @megynkelly your questions were more like attacks on @realDonaldTrump. Then u get upset when he got tough with u! What a j\x89\xdb_'
p183
aS'@RealMikeBennett: #DonaldTrump finishing each answer during the #GOPDebate http://t.co/AxCSmlUzFL'
p184
aS'@zigzagoonsquad: Pulling for trump he is like the "minions" of candidates #GOPDebate'
p185
aS'#GOPDebate Trump trumped all Bush bushed Walker weak Huckabee/Cruz loonies-as-usual Carson insignificant Rand sucks Fiorina hysterical'
p186
aS"Who won last nights debate? It damn well better be #America It's time to kick ass and forget #PC and politics as usual! #GOPDebate #Trump"
p187
aS'.@realDonaldTrump just gave a master class on how to get away with sexism http://t.co/36sdQbY52A via @voxdotcom #GOPDebate'
p188
aS".@realDonaldTrump said it best last night: It's time to #GetMoneyOut #GOPDebate #GOPTBT #KochVsPope http://t.co/xNo4YcFzIV"
p189
aS'If I had to vote today, it would be @realDonaldTrump! #GOPDebate #leader #dominated I saw a CEO of the panel. #CEO of the #Country.'
p190
aS'@coach_tricia: @realDonaldTrump I was on the streets talking to people before the debate. Afterwards, the word on the street and inside:\x89\xdb_'
p191
aS"#GOPDebate was swag. Let's go Trump! Lolololol"
p192
aS"@GaltsGirl: Trump's entire #GOPDebate performance: Don't hate the player. The rules are made for me, and I love it."
p193
aS'Trump got double the speaking time of Paul: http://t.co/2wndAiiiKc #GOPDebate http://t.co/1nAioxCLn9'
p194
aS"Loved it in the #GOPdebate when @realDonaldTrump pointed out that Ronald Reagan evolved, and so has he--I don't think they like me"
p195
aS"Ben, I love ya man. I think it went more like @realDonaldTrump nailed them for thinking he isn't, wasn't. #GOPDebate https://t.co/nuCZHpHlvX"
p196
aS".@realDonaldTrump said it last night: It's time to #GetMoneyOut #GOPDebate #GOPTBT #KochVsPope http://t.co/xItysJFLrJ"
p197
aS'Anybody watch the @realDonaldTrump roast last night? He handled it pretty well. #GOPDebate #VoteTrump'
p198
aS'@megynkelly: .@realDonaldTrump on giving to #Clinton: I didn\x89\xdb\xaat know money would be used on private jets going all over the world. #GOPDe\x89\xdb_'
p199
aS'@calfit32: And in spite of #FoxNewsTrumpHitJob #GOPDebate go #Trump2016  https://t.co/aJAeUCqlOZ'
p200
aS'@foxandfriends @realDonaldTrump would have been nice if u would have let the 92yr. speak instead of interrupting her! #GOPDebate'
p201
aS'#GOPdebate @realDonaldTrump said country needs him to straighten out the financial mess. Support #FairTax &amp; I will vote for you. @FairTax'
p202
aS'best part of #GOPDebate -@realDonaldTrump telling @megynkelly "we aint cool for real &amp; i dont have to be nice to yo ass"'
p203
aS'Voting for @realDonaldTrump, without question. #GOPDebate'
p204
aS'"We don\'t win anymore.  We lose to China.  We lose to Mexico.  We lose to everybody." -Trump\r\rPreach it, sir, preach it! #GOPDebate'
p205
aS'"The problem this country has is being politically correct" -Trump\r\rAmen sir, amen. #GOPDebate'
p206
aS'No matter what @realDonaldTrump was the reason a lot of people tuned in last night who wouldn\x89\xdb\xaat have otherwise. Good for the #GOPdebate'
p207
aS'@ImtheBoogyman: http://t.co/gXSpz9KqJ7 Who won the debate? I voted @realDonaldTrump cast your vote with an honest source @DRUDGE not @Fo\x89\xdb_'
p208
aS'Floyd5689: Loved watching the #GOPDebate last night! We need realDonaldTrump to #MakeAmericagreatagain. #inspiration'
p209
aS"Donald Trump won viewers' attention during the #GOPdebate, though probably not the debate itself http://t.co/ftgGl1ZG1C"
p210
aS'@drginaloudon: Bo (my son, age 8) has the #HappyHour #GOPDEBATE all figured out... \r\r"Trump should be President. I mean, he\'s so... http\x89\xdb_'
p211
aS'@renomarky: Went to bed speechless after #GOPDebate , woke up pissd off with how @megynkelly @FoxNews went about attacking @realDonaldTr\x89\xdb_'
p212
aS'@VINNYGUADAGNINO: Bro Donald Trump has to stay in this race as long as possible for entertainment purposes #GOPDebate'
p213
aS'Watching #GOPDebate from last night. Wow Trump on fire first 15mins. Says what he thinks, is this a new popular breed in politics? #corbyn'
p214
aS"During #FoxNews' #GOPDebate, #MegynKelly was suffering from delusions that she was a #Minnesota dentist, and #DonaldTrump was #CecilTheLion."
p215
aS'@JaclynHStrauss: I loved it in the #GOPdebate when @realDonaldTrump said the country needs him to straighten out the financial mess.'
p216
aS'#Trump\'s truest and best line: "if it weren\x89\xdb\xaat for me you wouldn\x89\xdb\xaat even be talking about illegal immigration" #TRUMPEFFECT  #GOPDEBATE'
p217
aS'Loved watching the #GOPDebate last night! We need @realDonaldTrump to #MakeAmericagreatagain. #inspiration'
p218
aS'#GOPDebate When they all stand on stage together,\rit looks like a @realDonaldTrump cabinet meeting.'
p219
aS'I loved it in the #GOPdebate when @realDonaldTrump said the country needs him to straighten out the financial mess.'
p220
aS"I loved it in the #GOPdebate when @realDonaldTrump said he's made 10 billion dollars. And America owes 19 trillion."
p221
aS'@brownandbella: Trump packed his fucks in a separate suitcase that never made it Ohio. THIS THE BEST DEBATE EVER. #GOPDebate'
p222
aS'I loved it in the #GOPdebate when @realDonaldTrump said the lenders are killers. Chris Wallace was exceedingly disrespectful'
p223
aS'@OhNoSheTwitnt: I\'m surprised Trump doesn\'t use air quotes when he says "president" Obama. #GOPDebate'
p224
aS'Thank you Donald Trump ...\r\r#GOPDebate  https://t.co/Cw81oP2bt4'
p225
aS"I loved it in the #GOPdebate when @realDonaldTrump said on 4 occasions he's used the laws of America to his advantage."
p226
aS'Donald Trump gets the award for most entertaining. #GOPDebate'
p227
aS"@realDonaldTrump Wild Card 2016 Presidential Race. It's Good to be Underestimated! #MakeAmericaGreatAgain #GOPDebate http://t.co/bnBPBZ82o6"
p228
aS"@Sanddragger: #TrumpBashing at it's finest. #MegynKelly #MegynKellyDebateQuestions #GOPDebate https://t.co/3vyUKSNrWE"
p229
aS'@realDonaldTrump can insult everyone &amp; call them stupid but then cries at @megynkelly tough but fair questions.#GOPDebate @assholeofday'
p230
aS'@JaclynHStrauss: I loved it in the #GOPdebate when @realDonaldTrump said the insurance companies have control over the politicians #obam\x89\xdb_'
p231
aS"@ggfletcher: Trump's big beautiful door: #GOPDebate http://t.co/f2CR23uXFL"
p232
aS'GOP Debate News - Trump Shocks GOP Faithful http://t.co/OKOqZojXFJ  #DonaldTrump  #GOPDebate http://t.co/yTusGmoClG'
p233
aS'@realDonaldTrump dodged those questions like a first 48 suspect lol #GOPDebate #'
p234
aS'GOP Debate News - Trump Shocks GOP Faithful - http://t.co/8PxIVxHnxB - #GOPDebate #DonaldTrump'
p235
aS'GOP Debate News - Trump Shocks GOP Faithful - http://t.co/TdLF7jC3Ig - #GOPDebate #DonaldTrump'
p236
aS"Fox News Couldn't Kill #Trump\x89\xdb\xaas Momentum\xe5\xca&amp; May Have Only Made It Stronger. #GOPDebate \rhttp://t.co/UjAgBlG1UQ"
p237
aS'@AmyMek: I am #ProLife -&gt; @realDonaldTrump, I hate the concept of abortion! I have evolved\x89\xdb_. #GOPDebate'
p238
aS'GOP Debate News - Trump Shocks GOP Faithful - http://t.co/ybbA83GtMY -#GOPDebate #DonaldTrump http://t.co/1cJ3Zy1U4w'
p239
aS"@pattonoswalt: Tough words, Donald Trump. No way Obama's gonna get re-elected now! #GOPDebate"
p240
aS'@mcbyrne Trump did NOT threaten Megyn Kelly, drama queen. #GOPDebate #FOXNEWSDEBATE #FoxDebate'
p241
aS'@BiasedGirl: Thank you, @megynkelly for exposing Donald Trump as the fraud he is. Thank You. \r\r#GOPDebate #DumpTrump'
p242
aS'@BradWalsh: I will 100% vote for Donald Trump if, at the end of all this, he looks directly at the camera and shouts "The Aristocrats!" \x89\xdb_'
p243
aS'WHAT IS THE GREATEST THING EVER @realDonaldTrump #GOPDebate  https://t.co/RkKuHeT4jS'
p244
aS'#GOPDebate winners: Trump, Cruz, Carson, Kasich, Huckabee, Fiorina\r#POTUS #Trump2016 #republicans'
p245
aS'.@howardfineman verdict on #GOPdebate: Trump Trips, but Trumpism Wins\rhttp://t.co/jaPp3PBI8u'
p246
aS"I'll admit, some of @realDonaldTrump's commentary during the #GOPDebate was quite hilarious."
p247
aS'Actually Trump, we live in the least violent time in human history. #GOPDebate'
p248
aS'Trump-ratings #GOPDebate \r"overnight numbers seemed to surpass everyone\'s expectations"\r\rhttp://t.co/G3AaWdOBpd'
p249
aS'Hands up who won the #GOPDebate polls show @realDonaldTrump to increase his lead after win,America trusts #Trump2016 http://t.co/GKa0V49AlB'
p250
aS'Kinda liking #DonaldTrump for prez. #GOPDebate #KeepitReal'
p251
aS'@Sir_Max: bentonlee1: RT DrMartyFox: #Trump Wins Drudge \rDebate Poll \r\r\x89_\xc1\x95\xfc\x8f By A Landslide \r\r#TedCruz #2 \r\r#GOPDebate #PJNET_\xd9\xe0\xbc_\xd9\xe0\xfc\x89\xdb_ http://t.c\x89\xdb_'
p252
aS'I think @FoxNews did everything it could to derail the @realDonaldTrump during the #GOPDebate. Newsflash you failed @megynkelly'
p253
aS'@andykhouri "never give up your leverage before the negotiation starts" - Donald #Trump 2015\r#GOPDebate \r#TrumpForPresident'
p254
aS'bentonlee1: RT DrMartyFox: #Trump Wins Drudge \rDebate Poll \r\r\x89_\xc1\x95\xfc\x8f By A Landslide \r\r#TedCruz #2 \r\r#GOPDebate #PJNET_\xd9\xe0\xbc_\xd9\xe0\xfc\x89\xdb_ http://t.co/6lZ5pSAFMS'
p255
aS'@MSGDannyRet "never give up your leverage before the negotiation starts" - Donald #Trump 2015\r#GOPDebate \r#TrumpForPresident'
p256
aS'@FoxNews @megynkelly @DanaPerino @GOP #RNC @Reince -&gt; WE raised OUR hands too! #GOPDebate @realDonaldTrump #MakeAmericaGreatAgain #NoAmnesty'
p257
aS'Please Join Me to Congratulate @realDonaldTrump on his Success in #GOPDebate #MakeAmericaGreatAgain His 1st Debate! http://t.co/7AM5odCBvW'
p258
aS"#GOPDebate they didn't give Trump chance to answer the most important question. But he is still a winner."
p259
aS"@TheBenWalters: Thanks to Trump, the #GOPDebate shattered viewership records. Many voters introduced to candidates they wouldn't know ex\x89\xdb_"
p260
aS'My response when @megynkelly tried to call @realDonaldTrump a sexist: "CAN\'T STUMP THE TRUMP!" #GOPDebate'
p261
aS'The Donald, in spite of megyn kelly, won the debate,\r#GOPDebate'
p262
aS"@RWSurferGirl: The candidates don't have to attack @realDonaldTrump Fox is doing it for them by stoping him from speaking. _\xd9\xe0\xbc_\xd9\xe0\xfc #GOPDebate\x89\xdb_"
p263
aS'\x89\xdb\xcf@WSJ: Did Donald Trump\x89\xdb\xaas performance at the first #GOPdebate help or hurt him? # he spoke the truth you either like you or not I do.'
p264
aS'I want to see Donald Trump as US President. He is awesome. #GOPDebate http://t.co/gWVflrsZk4'
p265
aS"@realDonaldTrump taught me during the #GOPDebate that it's okay to be mean to others if you can reframe it as anti-political correctness"
p266
aS'@realRoseIzzo: Outstanding Mr Trump! #TrumpWins &gt;@DanScavino: #GOPDebate Winner!\rDrudge 50% \rTIME 46%\rFOXSD @realDonaldTrump http://t.co\x89\xdb_'
p267
aS'@DrMwba: Tell the bimbo to shut the F up #DonaldTrump! Hahahaha #GOPDebate'
p268
aS'@larryelder: Trump should have said, "Megyn, ask these nine candidates, if they plan to support ME when I win the nomination."\r#GOPDebat\x89\xdb_'
p269
aS"@RWSurferGirl: Ask Trump a legitimate question. Look at Wallace's face when Trump nails it. _\xd9\xe0\xbc_\xd9\xe0\xfc #GOPDebate  #GOPDebates"
p270
aS"@RWSurferGirl: Thanks Fox News, you're raising @realDonaldTrump 's ratings. _\xd9\xe0\xbc_\xd9\xe0\xfc #GOPDebate  #GOPDebates"
p271
aS'@RWSurferGirl: Why should @realDonaldTrump pledge support to the GOP when the establishment sold out to Obama? #GOPDebate  #GOPDebates _\xd9\xe0\xbc_\xd9\xe0\xfc'
p272
aS"\x89\xdb_#Trump wasn't going to play their PC game #GOPDebate #GOPDebates @BillHemmer"
p273
aS'To start th evening, RNC moderators dropped Atom Bomb on #Trump \r...Trump kicked it thru th uprights #GOPDebate #GOPDebates\r@BillHemmer'
p274
aS'@keriRN: http://t.co/VAGYIuZ5J8 #dumbassSexist Donald Trump made case for campaign finance reform....#GOPDebates'
p275
aS'http://t.co/VAGYIuZ5J8 #dumbassSexist Donald Trump made case for campaign finance reform....#GOPDebates'
p276
aS'@RWSurferGirl: Trump has got it right, nobody would talk about immigration, not untill be brought it up. #GOPDebate #GOPDebates'
p277
aS"@slone @realDonaldTrump We're watching their plans unfold- psych. warfare - pure &amp; simple. Games. #gopdebates"
p278
aS'@kwrcrow: When will they learn? @FoxNews @megynkelly attack @realDonaldTrump and he wins @TIME &amp; @DRUDGE poll. #GOPDebates http://t.co/o\x89\xdb_'
p279
aS'@louvice: Donald Will Go Independent! RubioNever Shows up 4 Work! #GopDebates'
p280
aS'#RNC needs those #Trump2016 voters to win gen elect- without them hiliary is next pres. #GOPDebates #FoxNews. Be Fair-bench MW &amp; @megynkelly'
p281
aS'@kwrcrow: Congrats to @realDonaldTrump for your win in #GOPDebates polling last night. @Time @DRUDGE_REPORT Well done Sir! http://t.co/n\x89\xdb_'
p282
aS'"@kimguilfoyle: Two great debates! Who were your favorites? Let me know your thoughts #GOPDebates #RoadTo2016"TRUMP baby!'
p283
aS'Congrats to @realDonaldTrump for your win in #GOPDebates polling last night. @Time @DRUDGE_REPORT Well done Sir! http://t.co/nDu4EO1VRX'
p284
aS"@RWSurferGirl: These debates will raise @realDonaldTrump 's ratings because Fox News is afraid of Trump and it shows. #GOPDebate #GOPDeb\x89\xdb_"
p285
aS"@RWSurferGirl: FOX News won't admit who the Republican leader is right now I mean @realDonaldTrump only has a double-digit lead _\xd9\xe0\xbc_\xd9\xe0\xfc #GOPD\x89\xdb_"
p286
aS'What ever you think of @realDonaldTrump, He\x89\xdb\xaas resilient as hell and a straight shooter\r\r http://t.co/eiWb8vWmel\r\r#GOPDebate #GOPDebates'
p287
aS"Donald Trump's  best lines from the first GOP debate   #Debates #GOPDebates #DonaldTrump http://t.co/1cSlxvIcwp"
p288
aS'@BettyFckinWhite: So Donald Trump is Biff from Back to the Future 2? #GOPDebates #womensrights  #combover http://t.co/IS9GYB7P31'
p289
aS'@jeaniebgd: Donald Trumps loyalty is to America and the American people. Not to a political party. @GOP #GOPDebates #tcot #pjnet #MakeAm\x89\xdb_'
p290
aS'@realDonaldTrump is the honey badger of candidates this round. #GOPDebate #GOPDebates great #FoxDebate tonight!'
p291
aS'To start th evening, RNC moderators dropped Atom Bomb on #Trump \r...Trump kicked it thru th uprights #GOPDebate #GOPDebates\r@DRUDGE_REPORT'
p292
aS'Donald Trumps loyalty is to America and the American people. Not to a political party. @GOP #GOPDebates #tcot #pjnet #MakeAmericaGreatAgain!'
p293
aS"\x89\xdb_#Trump wasn't going to play their PC game #GOPDebate #GOPDebates  @IngrahamAngle"
p294
aS"Reagan was a democrat.  So if Trump changed from a democrat to a republican then I'm okay with that. #GOPDebates"
p295
aS'Many great businesses use the bankruptcy laws. Trump did what a lot of businesses have done. #GOPDebates'
p296
aS'@ProfessorRobo: To start th evening, RNC moderators dropped Atom Bomb on #Trump \r...Trump kicked it thru th uprights #GOPDebate #GOPDeba\x89\xdb_'
p297
aS'I have no intention of voting for Trump, but love this guy brand and i wil give him credit for stirring things up #SummerofTrump #GOPDebates'
p298
aS"@mcgrudder: #GOP2016debate #GOPDebate #GOPDebates #Trump2016 #Trump2016 Trump has the GOP scared.  They don't control him.  He talks abo\x89\xdb_"
p299
aS"#GOP2016debate #GOPDebate #GOPDebates #Trump2016 #Trump2016 Trump has the GOP scared.  They don't control him.  He talks about needed issues"
p300
aS'@devindwyer: "Anyone have any more questions?" #TrumpCrush #GOPdebates http://t.co/bDUX3nKyTe'
p301
aS"@RWSurferGirl: I'm really really really pissed off at FOX News for what they did to @realDonaldTrump #GOPDebate  #GOPDebates _\xd9\xe0\xbc_\xd9\xe0\xfc"
p302
aS'"Anyone have any more questions?" #TrumpCrush #GOPdebates http://t.co/bDUX3nKyTe'
p303
aS'@BruceBartlett @JesseLaGreca  #GOPDebates were definitely biased. Too civilized...except for #Trump2016'
p304
aS'@tmservo433: Prediction: Donald Trump goes up in post debate polls. Because he looks no crazier than anyone else and more entertaining #\x89\xdb_'
p305
aS'Loved Trump calling our leaders stupid. #GOPDebates'
p306
aS"LMFAO!! I'm drunk but I enjoyed that! #Trump #GOPDebates  https://t.co/2thNmyuENP"
p307
aS"Trump doesn't care about political correctness, but he does care about America's future.  #GOPDebates"
p308
aS'Yassssss #DonaldTrump is doing it up... He answers the questions the way he wants to. #FOXNEWSDEBATE #GopDebates'
p309
aS'@fergie_spuds: Trump and Ben Carson stood out #GopDebates'
p310
aS'@RWSurferGirl: @tedcruz and @realDonaldTrump need to take control of this debate,  they can do it, _\xd9\xe0\xbc_\xd9\xe0\xfc #GOPDebate  #GOPDebates'
p311
aS'@ericstonestreet: Trump has Cam hands. #GOPDebates'
p312
aS'So true. And a lot of people agree. Should have used @FoxNews #GOPDebates @realDonaldTrump  https://t.co/QLzSVI4Otm'
p313
aS'#GOPDebates part 2. Surprisingly good. #Trump2016 belligerent, some good points made by others. All came across as human, except Cuz.'
p314
aS'Trump and Ben Carson stood out #GopDebates'
p315
aS'A pollster just called and I told them @realDonaldTrump won! Go Trump Go! #Trump #GOPDebates'
p316
aS'@RWSurferGirl: You would never know @realDonaldTrump  is the frontrunner from watching this debate. _\xd9\xe0\xbc_\xd9\xe0\xfc #GOPDebate  #GOPDebates'
p317
aS'I like him for that slam #Trump #GOPDebates https://t.co/Df1aEfuVGj'
p318
aS'@kwrcrow: Even after biased attacks by @FoxNews, @realDonaldTrump wins #GOPDebates.'
p319
aS'Even after biased attacks by @FoxNews, @realDonaldTrump wins #GOPDebates.'
p320
aS'@RWSurferGirl: I think Cruz and Trump need to band together and expose this set up job, and get rid of Bush and Rubio, _\xd9\xe0\xbc_\xd9\xe0\xfc #GOPDebate  #G\x89\xdb_'
p321
aS'Fun watching @realDonaldTrump sock it to @FoxNews &amp; so many other "reporters" who have lost their true north. Go Don! #GOPdebates _\xd9\xe0\xbc_\xd9\xe0\xfc'
p322
aS'#GOPDebates #Trump @megynkelly still supporting trump no matter how hard you tried to tear him down.'
p323
aS'@megynkelly @FrankLuntz @realDonaldTrump @RealBenCarson stood out @jamiaw #GOPDebates'
p324
aS"@steakNstiffarms: I'm imagining Trump giving a State of the Union, and yeah ok maybe I'd vote for him #GOPDebates"
p325
aS'@msgoddessrises: _\xd9\xf7\xe2_\xd9\xf7\xe2_\xd9\xf7\xe2_\xd9\xf7\xe2 Drink!!! #Trump #GOPDebates  https://t.co/Az9GUGMCGU'
p326
aS"Trump is doing a good job. It's amazing. We may not want to hear it. He has said it. #Trump #Trump2016 #GOPDebate #politics #GOPDebates"
p327
aS'Watching the #GOPdebates Interesting so far! Must say though I disagree with Trump on many issues, he is the most entertaining of the bunch.'
p328
aS"Trump can't say when he became Conservative because HES NOT #tcot #ccot #GOPDebate #TrojanHorseTrump #GOPDebates #FoxDebate"
p329
aS'Trump was the only one saying things we thought. Being NOT politically correct makes you a target. #GOPDebates  https://t.co/NQWL659HZE'
p330
aS"I know I'm tweeting too much, but I'm just tryna to get a forced invite to Trump's next wedding. #GOPDebates #GOPteen"
p331
aS'#Trump calls @JebBush a gentleman. #GOPdebates'
p332
aS'@megynkelly your personal attacks on @realDonaldTrump makes me like him more #backfiring #GOPDebates'
p333
aS'Hey! Trump has evolved! Just like Obama! #GopDebates'
p334
aS'2 drinks -#Trump said "great, great." #GOPDebates'
p335
aS'Trump nails it every time. #GOPDebates'
p336
aS'@CopDwg wow! I thought it was #msnbc   Fox has changed. #GopDebates'
p337
aS'@RWSurferGirl: I am wondering what Fox is up to with THIS debate -- get rid of Trump, Paul, Cruz, Carson? _\xd9\xe0\xbc_\xd9\xe0\xfc #GOPDebates  #GOPDebate'
p338
aS'@tedcruz and @realDonaldTrump need to take control of this debate,  they can do it, _\xd9\xe0\xbc_\xd9\xe0\xfc #GOPDebate  #GOPDebates'
p339
aS'#GOPdebates Huckabee, Rubio, Paul, and Walker get a well done, but Trump battled the #FoxFire and won.'
p340
aS'#Trump is killing me in the #GOPDebates. Loved his #AtlanticCity zinger to #ChrisChristie. And how condescending he was to the moderator.'
p341
aS'@kvlxi19xx Yes he does and never claimed that he would do that.\r#DUH #DonaldTrump  #GOPDebates'
p342
aS'You would never know @realDonaldTrump  is the frontrunner from watching this debate. _\xd9\xe0\xbc_\xd9\xe0\xfc #GOPDebate  #GOPDebates'
p343
aS"@b140_tweet: Does this remind  you of #Trump's lips #GOPDebates http://t.co/Ph9L6DrInF"
p344
aS"CDM @RWSurferGirl  3m3 minutes ago\rThanks Fox News, you're raising @realDonaldTrump 's ratings. \x97_\xd2\xc2\x97_\xd2_ #GOPDebate  #GOPDebates"
p345
aS"Good show. Bring on #JonVoyage. Prediction: Trump goes independent.  #GOPDebate #GopDebates @FoxNews see ya once y'all narrow it to 1. Gah!"
p346
a.